
a1b2c3d4-5678-9abc-def0-123456789abc.elf:     file format elf64-littleaarch64
a1b2c3d4-5678-9abc-def0-123456789abc.elf
architecture: aarch64, flags 0x00000150:
HAS_SYMS, DYNAMIC, D_PAGED
start address 0x0000000000000194

Program Header:
    LOAD off    0x0000000000001000 vaddr 0x0000000000000000 paddr 0x0000000000000000 align 2**12
         filesz 0x00000000000112a0 memsz 0x00000000000112a0 flags r-x
    LOAD off    0x0000000000013000 vaddr 0x0000000000012000 paddr 0x0000000000012000 align 2**12
         filesz 0x0000000000000624 memsz 0x000000000000bed8 flags rw-
 DYNAMIC off    0x0000000000013000 vaddr 0x0000000000012000 paddr 0x0000000000012000 align 2**3
         filesz 0x0000000000000110 memsz 0x0000000000000110 flags rw-
   STACK off    0x0000000000000000 vaddr 0x0000000000000000 paddr 0x0000000000000000 align 2**4
         filesz 0x0000000000000000 memsz 0x0000000000000000 flags rw-

Dynamic Section:
  HASH                 0x0000000000010f58
  GNU_HASH             0x0000000000010e20
  STRTAB               0x0000000000010f20
  SYMTAB               0x0000000000010e78
  STRSZ                0x0000000000000036
  SYMENT               0x0000000000000018
  DEBUG                0x0000000000000000
  RELA                 0x0000000000010f88
  RELASZ               0x0000000000000540
  RELAENT              0x0000000000000018
  FLAGS_1              0x0000000008000000
  RELACOUNT            0x0000000000000021
private flags = 0x0:

Sections:
Idx Name          Size      VMA               LMA               File off  Algn
  0 .text         0000cf7c  0000000000000000  0000000000000000  00001000  2**5
                  CONTENTS, ALLOC, LOAD, READONLY, CODE
  1 .eh_frame     00002e08  000000000000cf80  000000000000cf80  0000df80  2**3
                  CONTENTS, ALLOC, LOAD, READONLY, DATA
  2 .rodata       00001095  000000000000fd88  000000000000fd88  00010d88  2**3
                  CONTENTS, ALLOC, LOAD, READONLY, DATA
  3 .gnu.hash     00000034  0000000000010e20  0000000000010e20  00011e20  2**3
                  CONTENTS, ALLOC, LOAD, READONLY, DATA
  4 .ta_head      00000020  0000000000010e58  0000000000010e58  00011e58  2**3
                  CONTENTS, ALLOC, LOAD, READONLY, DATA
  5 .dynsym       000000a8  0000000000010e78  0000000000010e78  00011e78  2**3
                  CONTENTS, ALLOC, LOAD, READONLY, DATA
  6 .dynstr       00000036  0000000000010f20  0000000000010f20  00011f20  2**0
                  CONTENTS, ALLOC, LOAD, READONLY, DATA
  7 .hash         00000030  0000000000010f58  0000000000010f58  00011f58  2**3
                  CONTENTS, ALLOC, LOAD, READONLY, DATA
  8 .rela.dyn     00000318  0000000000010f88  0000000000010f88  00011f88  2**3
                  CONTENTS, ALLOC, LOAD, READONLY, DATA
  9 .dynamic      00000110  0000000000012000  0000000000012000  00013000  2**3
                  CONTENTS, ALLOC, LOAD, DATA
 10 .got          000000d8  0000000000012110  0000000000012110  00013110  2**3
                  CONTENTS, ALLOC, LOAD, DATA
 11 .rela.got     00000228  00000000000121e8  00000000000121e8  000131e8  2**3
                  CONTENTS, ALLOC, LOAD, READONLY, DATA
 12 .data         00000214  0000000000012410  0000000000012410  00013410  2**3
                  CONTENTS, ALLOC, LOAD, DATA
 13 .bss          0000b8b0  0000000000012628  0000000000012628  00013624  2**3
                  ALLOC
 14 .debug_info   0001d946  0000000000000000  0000000000000000  00013624  2**0
                  CONTENTS, READONLY, DEBUGGING, OCTETS
 15 .debug_abbrev 00004a7c  0000000000000000  0000000000000000  00030f6a  2**0
                  CONTENTS, READONLY, DEBUGGING, OCTETS
 16 .debug_loclists 00010a24  0000000000000000  0000000000000000  000359e6  2**0
                  CONTENTS, READONLY, DEBUGGING, OCTETS
 17 .debug_aranges 000009b0  0000000000000000  0000000000000000  00046410  2**4
                  CONTENTS, READONLY, DEBUGGING, OCTETS
 18 .debug_rnglists 00000d64  0000000000000000  0000000000000000  00046dc0  2**0
                  CONTENTS, READONLY, DEBUGGING, OCTETS
 19 .debug_macro  00022aec  0000000000000000  0000000000000000  00047b24  2**0
                  CONTENTS, READONLY, DEBUGGING, OCTETS
 20 .debug_line   0000bb61  0000000000000000  0000000000000000  0006a610  2**0
                  CONTENTS, READONLY, DEBUGGING, OCTETS
 21 .debug_str    0001ffd5  0000000000000000  0000000000000000  00076171  2**0
                  CONTENTS, READONLY, DEBUGGING, OCTETS
 22 .debug_line_str 00000b92  0000000000000000  0000000000000000  00096146  2**0
                  CONTENTS, READONLY, DEBUGGING, OCTETS
 23 .comment      00000046  0000000000000000  0000000000000000  00096cd8  2**0
                  CONTENTS, READONLY
SYMBOL TABLE:
0000000000000000 l    d  .text	0000000000000000 .text
000000000000cf80 l    d  .eh_frame	0000000000000000 .eh_frame
000000000000fd88 l    d  .rodata	0000000000000000 .rodata
0000000000010e20 l    d  .gnu.hash	0000000000000000 .gnu.hash
0000000000010e58 l    d  .ta_head	0000000000000000 .ta_head
0000000000010e78 l    d  .dynsym	0000000000000000 .dynsym
0000000000010f20 l    d  .dynstr	0000000000000000 .dynstr
0000000000010f58 l    d  .hash	0000000000000000 .hash
0000000000010f88 l    d  .rela.dyn	0000000000000000 .rela.dyn
0000000000012000 l    d  .dynamic	0000000000000000 .dynamic
0000000000012110 l    d  .got	0000000000000000 .got
00000000000121e8 l    d  .rela.got	0000000000000000 .rela.got
0000000000012410 l    d  .data	0000000000000000 .data
0000000000012628 l    d  .bss	0000000000000000 .bss
0000000000000000 l    d  .debug_info	0000000000000000 .debug_info
0000000000000000 l    d  .debug_abbrev	0000000000000000 .debug_abbrev
0000000000000000 l    d  .debug_loclists	0000000000000000 .debug_loclists
0000000000000000 l    d  .debug_aranges	0000000000000000 .debug_aranges
0000000000000000 l    d  .debug_rnglists	0000000000000000 .debug_rnglists
0000000000000000 l    d  .debug_macro	0000000000000000 .debug_macro
0000000000000000 l    d  .debug_line	0000000000000000 .debug_line
0000000000000000 l    d  .debug_str	0000000000000000 .debug_str
0000000000000000 l    d  .debug_line_str	0000000000000000 .debug_line_str
0000000000000000 l    d  .comment	0000000000000000 .comment
0000000000000000 l    df *ABS*	0000000000000000 memcpy.c
0000000000000000 l    df *ABS*	0000000000000000 secure_switch_ta.c
0000000000010baa l     O .rodata	0000000000000014 __func__.0
0000000000000000 l    df *ABS*	0000000000000000 user_ta_header.c
000000000000fd90 l     O .rodata	0000000000000001 __compound_literal.7
000000000000fd94 l     O .rodata	0000000000000004 __compound_literal.6
000000000000fd98 l     O .rodata	0000000000000004 __compound_literal.5
000000000000fd9c l     O .rodata	0000000000000004 __compound_literal.4
000000000000fda0 l     O .rodata	0000000000000001 __compound_literal.3
000000000000fda1 l     O .rodata	0000000000000001 __compound_literal.2
000000000000fda2 l     O .rodata	0000000000000001 __compound_literal.1
000000000000fda3 l     O .rodata	0000000000000001 __compound_literal.0
0000000000015ed0 l     O .bss	0000000000000001 stack_canary_inited.0
0000000000000000 l    df *ABS*	0000000000000000 stack_check.c
0000000000000000 l    df *ABS*	0000000000000000 trace.c
0000000000010bbe l     O .rodata	0000000000000005 lvl_strs.0
0000000000000000 l    df *ABS*	0000000000000000 snprintk.c
0000000000000770 l     F .text	0000000000000c08 kprintf.constprop.0
000000000000fe62 l     O .rodata	0000000000000011 hexdigits
000000000000fe73 l     O .rodata	0000000000000011 HEXDIGITS
0000000000000000 l    df *ABS*	0000000000000000 memchr.c
0000000000000000 l    df *ABS*	0000000000000000 strlen.c
0000000000000000 l    df *ABS*	0000000000000000 trace_ext.c
0000000000000000 l    df *ABS*	0000000000000000 user_ta_entry.c
00000000000015e0 l     F .text	00000000000000b0 _get_fn_array
0000000000001690 l     F .text	0000000000000098 _fini_iterate_phdr_cb
0000000000001728 l     F .text	0000000000000028 ta_header_get_session
0000000000001750 l     F .text	0000000000000070 to_utee_params
00000000000017c0 l     F .text	0000000000000060 from_utee_params
0000000000001820 l     F .text	0000000000000094 _init_iterate_phdr_cb
0000000000001a18 l     F .text	0000000000000094 ta_header_remove_session
0000000000010bc3 l     O .rodata	0000000000000016 __func__.2
0000000000012628 l     O .bss	0000000000000008 _num_mod_init
0000000000012630 l     O .bss	0000000000000001 init_done.1
0000000000012631 l     O .bss	0000000000000001 internal_init_done.0
0000000000012508 l     O .data	0000000000000010 ta_sessions
0000000000012518 l     O .data	0000000000000010 __phdr_info_head
0000000000000000 l    df *ABS*	0000000000000000 user_ta_entry_compat.c
0000000000001d50 l     F .text	0000000000000064 to_gp11_param
0000000000001db4 l     F .text	0000000000000064 from_gp11_param
0000000000000000 l    df *ABS*	0000000000000000 utee_syscalls_a64.o
0000000000000000 l    df *ABS*	0000000000000000 abort.c
0000000000000000 l    df *ABS*	0000000000000000 tee_api.c
0000000000002260 l     F .text	0000000000000068 copy_param
00000000000022c8 l     F .text	000000000000006c copy_gp11_param
0000000000002334 l     F .text	00000000000000a0 check_mem_access_rights_params
00000000000023d4 l     F .text	0000000000000028 buf_overlaps_no_share_heap
00000000000023fc l     F .text	00000000000000a4 check_invoke_param
00000000000024a0 l     F .text	00000000000000a8 update_out_param
0000000000002548 l     F .text	00000000000000ac update_out_gp11_param
00000000000027d4 l     F .text	00000000000001ac map_tmp_param
000000000000fdc0 l     O .rodata	000000000000000b __func__.0
0000000000012698 l     O .bss	0000000000000008 tee_api_instance_data
0000000000000000 l    df *ABS*	0000000000000000 tee_api_arith_mpi.c
0000000000003330 l     F .text	0000000000000030 api_panic
0000000000003360 l     F .text	0000000000000030 mpi_panic
0000000000003390 l     F .text	0000000000000098 get_mpi
0000000000003428 l     F .text	000000000000006c copy_mpi_to_bigint
0000000000003494 l     F .text	0000000000000160 bigint_binary
00000000000035f4 l     F .text	0000000000000020 mpi_is_odd
0000000000003614 l     F .text	0000000000000028 rng_read
000000000000363c l     F .text	000000000000055c mpi_egcd
00000000000126a8 l     O .bss	0000000000003800 data.18
000000000000410c l     F .text	00000000000001e4 bigint_binary_mod
0000000000010bd9 l     O .rodata	0000000000000008 __func__.15
0000000000010be1 l     O .rodata	000000000000000e __func__.11
0000000000010bef l     O .rodata	0000000000000009 __func__.2
0000000000010bf8 l     O .rodata	0000000000000012 __func__.17
0000000000010c0a l     O .rodata	000000000000000f __func__.16
0000000000010c19 l     O .rodata	000000000000001f __func__.14
0000000000010c38 l     O .rodata	0000000000000019 __func__.13
0000000000010c51 l     O .rodata	0000000000000012 __func__.7
0000000000010c63 l     O .rodata	0000000000000015 __func__.12
0000000000010c78 l     O .rodata	000000000000000e __func__.10
0000000000010c86 l     O .rodata	000000000000000e __func__.9
0000000000010c94 l     O .rodata	000000000000000e __func__.8
0000000000010ca2 l     O .rodata	0000000000000011 __func__.6
0000000000010cb3 l     O .rodata	0000000000000018 __func__.5
0000000000010ccb l     O .rodata	0000000000000011 __func__.4
0000000000010cdc l     O .rodata	000000000000001d __func__.3
0000000000010cf9 l     O .rodata	0000000000000019 __func__.1
0000000000010d12 l     O .rodata	0000000000000015 __func__.0
0000000000000000 l    df *ABS*	0000000000000000 tee_api_panic.c
0000000000005554 l     F .text	000000000000001c check_access
0000000000005578 l     F .text	0000000000000008 check_res.part.0
0000000000005580 l     F .text	000000000000005c __utee_check_outbuf_annotation.localalias
00000000000055dc l     F .text	000000000000005c __utee_check_gp11_outbuf_annotation.localalias
00000000000056ac l     F .text	0000000000000030 __utee_check_attr_in_annotation.localalias
0000000000000000 l    df *ABS*	0000000000000000 tee_api_property.c
000000000000570c l     F .text	0000000000000020 is_propset_pseudo_handle
000000000000572c l     F .text	000000000000015c propget_get_ext_prop
0000000000005888 l     F .text	0000000000000258 propget_get_property
000000000000fe84 l     O .rodata	0000000000000004 __compound_literal.3
000000000000fe88 l     O .rodata	0000000000000004 __compound_literal.2
000000000000fe8c l     O .rodata	0000000000000004 __compound_literal.1
000000000000fe90 l     O .rodata	0000000000000004 __compound_literal.0
0000000000000000 l    df *ABS*	0000000000000000 tee_system_pta.c
000000000000670c l     F .text	0000000000000084 invoke_system_pta
000000000000fe94 l     O .rodata	0000000000000010 uuid.2
000000000000fea4 l     O .rodata	000000000000000a __func__.1
000000000000feae l     O .rodata	0000000000000017 __func__.0
0000000000015ea8 l     O .bss	0000000000000008 sess.3
0000000000000000 l    df *ABS*	0000000000000000 tcb.c
0000000000010d27 l     O .rodata	0000000000000010 __func__.1
0000000000010d37 l     O .rodata	0000000000000010 __func__.0
0000000000015eb0 l     O .bss	0000000000000008 _tls_size
0000000000015eb8 l     O .bss	0000000000000008 _tcb
0000000000000000 l    df *ABS*	0000000000000000 assert.c
0000000000000000 l    df *ABS*	0000000000000000 bignum.c
0000000000006df0 l     F .text	0000000000000024 mbedtls_ct_bool
0000000000006e14 l     F .text	0000000000000034 mbedtls_ct_mpi_sign_if
0000000000007210 l     F .text	000000000000006c mbedtls_mpi_resize_clear
0000000000007c3c l     F .text	00000000000000a4 add_sub_mpi
00000000000088d4 l     F .text	0000000000000310 mbedtls_mpi_exp_mod_optionally_safe
0000000000008ef8 l     F .text	00000000000000dc mpi_check_small_factors
0000000000009310 l     F .text	00000000000002b0 mpi_miller_rabin
000000000000fec8 l     O .rodata	00000000000000a7 small_prime_gaps
000000000000ff70 l     O .rodata	0000000000000024 gcd_pairs
0000000000000000 l    df *ABS*	0000000000000000 bignum_core.c
000000000000a304 l     F .text	0000000000000024 mbedtls_ct_bool
000000000000a328 l     F .text	0000000000000050 mbedtls_ct_uint_lt
000000000000ada4 l     F .text	00000000000002d4 mbedtls_mpi_core_exp_mod_optionally_safe
0000000000000000 l    df *ABS*	0000000000000000 constant_time.c
000000000000b3f4 l     F .text	0000000000000024 mbedtls_ct_bool
000000000000b418 l     F .text	0000000000000050 mbedtls_ct_uint_lt
0000000000000000 l    df *ABS*	0000000000000000 platform_util.c
0000000000012588 l     O .data	0000000000000008 memset_func
0000000000000000 l    df *ABS*	0000000000000000 bget_malloc.c
000000000000b8bc l     F .text	0000000000000010 _assert_trap
000000000000b8cc l     F .text	0000000000000098 update_free2_sum
000000000000b964 l     F .text	000000000000002c bget_buf_size.part.0
0000000000010d47 l     O .rodata	0000000000000011 __func__.8
0000000000010d58 l     O .rodata	000000000000000e __func__.2
0000000000010d66 l     O .rodata	0000000000000005 __func__.9
0000000000010d6b l     O .rodata	0000000000000006 __func__.7
0000000000010d71 l     O .rodata	0000000000000005 __func__.5
0000000000010d76 l     O .rodata	0000000000000006 __func__.6
0000000000010d7c l     O .rodata	0000000000000006 __func__.4
0000000000010d82 l     O .rodata	0000000000000007 __func__.3
0000000000010d89 l     O .rodata	0000000000000014 __func__.1
0000000000010d9d l     O .rodata	0000000000000013 __func__.0
0000000000012590 l     O .data	0000000000000090 malloc_ctx
0000000000000000 l    df *ABS*	0000000000000000 snprintf.c
0000000000000000 l    df *ABS*	0000000000000000 memmove.c
0000000000000000 l    df *ABS*	0000000000000000 memset.c
0000000000000000 l    df *ABS*	0000000000000000 strcmp.c
0000000000000000 l    df *ABS*	0000000000000000 strlcpy.c
0000000000000000 l    df *ABS*	0000000000000000 mempool.c
0000000000010db0 l     O .rodata	0000000000000013 __func__.2
0000000000010dc3 l     O .rodata	000000000000000b __func__.1
0000000000010dce l     O .rodata	000000000000000e __func__.0
0000000000000000 l    df *ABS*	0000000000000000 consttime_memcmp.c
0000000000000000 l    df *ABS*	0000000000000000 base64.c
0000000000010ddc l     O .rodata	0000000000000041 base64_table
0000000000000000 l    df *ABS*	0000000000000000 
0000000000012000 l     O *ABS*	0000000000000000 _DYNAMIC
0000000000012128 l     O *ABS*	0000000000000000 _GLOBAL_OFFSET_TABLE_
0000000000001568 g     F .text	0000000000000078 putchar
0000000000003d20 g     F .text	0000000000000008 __GP11_TEE_BigIntConvertFromOctetString
000000000000a988 g     F .text	000000000000005c mbedtls_mpi_core_add_if
0000000000005320 g     F .text	0000000000000004 TEE_BigIntConvertToFMM
0000000000004b54 g     F .text	000000000000000c TEE_BigIntSquareMod
00000000000042f0 g     F .text	00000000000001a8 TEE_BigIntShiftRight
000000000000c610 g     F .text	00000000000000f0 raw_malloc_add_pool
000000000000690c g     F .text	0000000000000118 tee_invoke_supp_plugin
000000000000b0e0 g     F .text	00000000000000b0 mbedtls_mpi_core_fill_random
0000000000006fd0 g     F .text	00000000000000f0 mbedtls_mpi_grow
0000000000006480 g     F .text	0000000000000124 __GP11_TEE_GetPropertyName
0000000000003240 g     F .text	00000000000000d0 TEE_Realloc
000000000000a818 g     F .text	00000000000000a0 mbedtls_mpi_core_shift_r
00000000000056e0 g     F .text	000000000000002c __utee_check_inout_annotation
000000000000c45c g     F .text	0000000000000010 raw_free
000000000000b49c g     F .text	0000000000000088 mbedtls_ct_memcmp_partial
000000000000143c g     F .text	00000000000000ec printf
00000000000046b0 g     F .text	000000000000002c TEE_BigIntAbs
0000000000001fac g     F .text	000000000000000c _utee_log
0000000000002c30 g     F .text	0000000000000190 TEE_InvokeTACommand
0000000000005580 g     F .text	000000000000005c __utee_check_outbuf_annotation
000000000000a760 g     F .text	00000000000000b8 mbedtls_mpi_core_write_be
0000000000006f40 g     F .text	0000000000000028 mbedtls_mpi_init_mempool
000000000000212c g     F .text	000000000000000c _utee_cryp_random_number_generate
000000000000777c g     F .text	0000000000000014 mbedtls_mpi_write_binary
0000000000000654 g     F .text	0000000000000058 vsnprintk
0000000000007d70 g     F .text	0000000000000080 mbedtls_mpi_sub_int
000000000000ca54 g     F .text	0000000000000058 memmove
000000000000c934 g     F .text	00000000000000c8 snprintf
0000000000004084 g     F .text	0000000000000088 TEE_BigIntCmpS32
0000000000002f64 g     F .text	0000000000000008 __GP11_TEE_MemMove
0000000000012500 g     O .data	0000000000000008 __stack_chk_guard
000000000000727c g     F .text	000000000000012c mbedtls_mpi_shrink
0000000000002f7c g     F .text	0000000000000008 __GP11_TEE_MemFill
00000000000046dc g     F .text	000000000000000c TEE_BigIntAdd
00000000000020cc g     F .text	000000000000000c _utee_cryp_obj_restrict_usage
000000000000fdb0 g     O .rodata	0000000000000008 ta_heap_size
0000000000002174 g     F .text	000000000000000c _utee_asymm_operate
0000000000008040 g     F .text	0000000000000264 mbedtls_mpi_read_string
000000000000aa28 g     F .text	00000000000001c4 mbedtls_mpi_core_mla
00000000000046f4 g     F .text	00000000000000ec TEE_BigIntNeg
00000000000021c8 g     F .text	000000000000000c _utee_storage_free_enum
0000000000000000 g       .text	0000000000000000 __text_start
0000000000006638 g     F .text	00000000000000d4 TEE_GetNextProperty
00000000000077f4 g     F .text	0000000000000030 mbedtls_mpi_shift_r
000000000000c920 g     F .text	0000000000000014 malloc_buffer_overlaps_heap
0000000000002078 g     F .text	000000000000000c _utee_hash_init
0000000000004b3c g     F .text	000000000000000c TEE_BigIntSubMod
0000000000009ba8 g     F .text	000000000000034c mbedtls_mpi_gen_prime
000000000000619c g     F .text	00000000000000a4 TEE_GetPropertyAsBinaryBlock
0000000000007584 g     F .text	000000000000002c mbedtls_mpi_get_bit
000000000000b190 g     F .text	0000000000000104 mbedtls_mpi_core_random
000000000000fda8 g     O .rodata	0000000000000008 __ta_no_share_heap_size
0000000000007708 g     F .text	0000000000000060 mbedtls_mpi_read_binary
00000000000004b0 g     F .text	00000000000000d8 trace_printf
0000000000008ffc g     F .text	0000000000000028 mbedtls_mpi_montmul
0000000000002234 g     F .text	000000000000000c _utee_cache_operation
0000000000000000 g     F .text	000000000000010c memcpy
000000000000b2bc g     F .text	0000000000000028 mbedtls_mpi_core_exp_mod
0000000000005324 g     F .text	00000000000000dc TEE_BigIntConvertFromFMM
0000000000005570 g     F .text	0000000000000008 TEE_Panic
000000000000b5c4 g     F .text	0000000000000124 mbedtls_ct_memcpy_if
0000000000001528 g     F .text	0000000000000040 puts
0000000000005400 g     F .text	0000000000000154 TEE_BigIntComputeFMM
000000000000c8e8 g     F .text	0000000000000010 malloc_get_stats
00000000000030a4 g     F .text	0000000000000028 TEE_GetREETime
000000000000c8a4 g     F .text	0000000000000044 raw_malloc_get_stats
0000000000012410 g     O .data	00000000000000f0 ta_props
00000000000031dc g     F .text	0000000000000008 __GP11_TEE_Malloc
0000000000002ae0 g     F .text	0000000000000150 __GP11_TEE_OpenTASession
0000000000005638 g     F .text	0000000000000040 __utee_check_instring_annotation
000000000000c4cc g     F .text	0000000000000028 malloc
000000000000646c g     F .text	0000000000000004 TEE_FreePropertyEnumerator
000000000000c9fc g     F .text	0000000000000058 vsnprintf
0000000000012620 g     O .data	0000000000000004 trace_level
0000000000003fe4 g     F .text	00000000000000a0 TEE_BigIntCmp
000000000000fd88 g     O .rodata	0000000000000008 ta_num_props
000000000000c038 g     F .text	00000000000000cc bgetr
000000000000218c g     F .text	000000000000000c _utee_storage_obj_open
0000000000002f70 g     F .text	0000000000000008 __GP11_TEE_MemCompare
000000000000cca0 g     F .text	000000000000001c mempool_free
0000000000002084 g     F .text	000000000000000c _utee_hash_update
0000000000003d28 g     F .text	00000000000000d0 TEE_BigIntConvertToOctetString
0000000000007680 g     F .text	000000000000000c mbedtls_mpi_bitlen
00000000000044a0 g     F .text	000000000000008c TEE_BigIntGetBit
000000000000fdb8 g     O .rodata	0000000000000003 trace_ext_prefix
00000000000021ec g     F .text	000000000000000c _utee_storage_next_enum
000000000000c29c g     F .text	0000000000000178 raw_malloc_flags
000000000000c438 g     F .text	0000000000000024 raw_malloc
000000000000bca4 g     F .text	0000000000000088 bgetz
0000000000002f54 g     F .text	000000000000000c TEE_GetInstanceData
0000000000002fac g     F .text	000000000000003c TEE_Wait
0000000000007df0 g     F .text	0000000000000194 mbedtls_mpi_mul_mpi
0000000000004498 g     F .text	0000000000000008 __GP11_TEE_BigIntShiftRight
0000000000003320 g     F .text	0000000000000008 TEE_CacheFlush
0000000000000290 g     F .text	0000000000000220 trace_vprintf
0000000000000140 g     F .text	0000000000000004 TA_DestroyEntryPoint
0000000000006f2c g     F .text	0000000000000014 mbedtls_mpi_init
00000000000021a4 g     F .text	000000000000000c _utee_storage_obj_del
000000000000763c g     F .text	0000000000000044 mbedtls_mpi_lsb
0000000000006d98 g     F .text	0000000000000044 _assert_log
0000000000002060 g     F .text	000000000000000c _utee_cryp_state_copy
0000000000005300 g     F .text	0000000000000008 TEE_BigIntFMMContextSizeInU32
0000000000006844 g     F .text	00000000000000c8 tee_unmap
000000000000cd2c g     F .text	0000000000000018 base64_enc_len
0000000000003b98 g     F .text	0000000000000050 _TEE_MathAPI_Init
0000000000006a24 g     F .text	0000000000000264 __utee_tcb_init
0000000000007ce0 g     F .text	0000000000000008 mbedtls_mpi_add_mpi
0000000000002240 g     F .text	0000000000000020 abort
00000000000095c0 g     F .text	0000000000000098 mbedtls_mpi_random
0000000000000234 g     F .text	0000000000000030 __stack_chk_fail
0000000000005680 g     F .text	000000000000002c __utee_check_out_annotation
0000000000015ed1 g     O .bss	0000000000008000 ta_heap
0000000000004b60 g     F .text	0000000000000158 TEE_BigIntInvMod
00000000000018b4 g     F .text	0000000000000154 __utee_call_elf_init_fn
0000000000000154 g     F .text	0000000000000004 TA_CloseSessionEntryPoint
0000000000000158 g     F .text	000000000000003c __GP11_TA_InvokeCommandEntryPoint
0000000000001fe8 g     F .text	000000000000000c _utee_close_ta_session
00000000000052c8 g     F .text	0000000000000008 __GP11_TEE_BigIntInitFMMContext
000000000000b340 g     F .text	0000000000000024 mbedtls_mpi_core_check_zero_ct
0000000000007ce8 g     F .text	0000000000000008 mbedtls_mpi_sub_mpi
000000000000ccbc g     F .text	0000000000000070 consttime_memcmp
0000000000001fa0 g     F .text	000000000000000c _utee_return
0000000000001fb8 g     F .text	000000000000000c __utee_panic
000000000000b468 g     F .text	0000000000000034 mbedtls_ct_memcmp
0000000000006c88 g     F .text	000000000000001c __tls_get_addr
0000000000000228 g     F .text	000000000000000c TA_InvokeCommandEntryPoint
0000000000001a08 g     F .text	0000000000000010 __utee_call_elf_fini_fn
000000000000c5d0 g     F .text	000000000000000c free_wipe
000000000000cbec g     F .text	0000000000000064 mempool_alloc
0000000000001f94 g     F .text	000000000000000c _utee_panic
000000000000c5e4 g     F .text	000000000000002c raw_malloc_init_ctx
000000000000cc50 g     F .text	0000000000000050 mempool_calloc
0000000000002228 g     F .text	000000000000000c _utee_cryp_obj_generate_key
0000000000002210 g     F .text	000000000000000c _utee_storage_obj_trunc
0000000000012528 g     O .data	0000000000000060 tee_props
0000000000002018 g     F .text	000000000000000c _utee_unmask_cancellation
0000000000006418 g     F .text	000000000000000c TEE_ResetPropertyEnumerator
000000000000c514 g     F .text	0000000000000028 calloc
00000000000030cc g     F .text	0000000000000110 TEE_Malloc
000000000000ce58 g     F .text	0000000000000124 base64_dec
0000000000002754 g     F .text	0000000000000080 TEE_CheckMemoryAccessRights
0000000000006240 g     F .text	00000000000000ec TEE_GetPropertyAsUUID
0000000000001fc4 g     F .text	000000000000000c _utee_get_property
00000000000045ac g     F .text	00000000000000b4 TEE_BigIntSetBit
0000000000007518 g     F .text	000000000000006c mbedtls_mpi_lset
000000000000021c g     F .text	000000000000000c TA_OpenSessionEntryPoint
000000000000b310 g     F .text	0000000000000030 mbedtls_mpi_core_sub_int
0000000000000144 g     F .text	0000000000000010 __GP11_TA_OpenSessionEntryPoint
0000000000006ca4 g     F .text	00000000000000f4 dl_iterate_phdr
000000000001ded8 g       .bss	0000000000000000 __ftrace_buf_end
0000000000012690 g     O .bss	0000000000000004 ta_param_types
00000000000087a0 g     F .text	0000000000000080 mbedtls_mpi_div_int
000000000000a6b4 g     F .text	00000000000000ac mbedtls_mpi_core_write_le
0000000000009ab8 g     F .text	00000000000000f0 mbedtls_mpi_is_prime_ext
0000000000005218 g     F .text	00000000000000a0 TEE_BigIntIsProbablePrime
0000000000007f84 g     F .text	00000000000000bc mbedtls_mpi_mul_int
00000000000090a0 g     F .text	0000000000000010 mbedtls_mpi_exp_mod
00000000000070c0 g     F .text	00000000000000a0 mbedtls_mpi_safe_cond_assign
0000000000005ae0 g     F .text	0000000000000274 TEE_GetPropertyAsString
0000000000006e48 g     F .text	00000000000000e4 mbedtls_mpi_lt_mpi_ct
0000000000003be8 g     F .text	0000000000000060 TEE_BigIntInit
0000000000003df8 g     F .text	000000000000006c __GP11_TEE_BigIntConvertToOctetString
0000000000004660 g     F .text	0000000000000050 TEE_BigIntAssign
0000000000005678 g     F .text	0000000000000004 __utee_check_outstring_annotation
0000000000002f60 g     F .text	0000000000000004 TEE_MemMove
000000000000b85c g     F .text	0000000000000038 mbedtls_platform_zeroize
0000000000003c50 g     F .text	00000000000000d0 TEE_BigIntConvertFromOctetString
0000000000002168 g     F .text	000000000000000c _utee_authenc_dec_final
0000000000007824 g     F .text	00000000000000a0 mbedtls_mpi_cmp_abs
00000000000021f8 g     F .text	000000000000000c _utee_storage_obj_read
00000000000013c4 g     F .text	000000000000002c memchr
0000000000002684 g     F .text	0000000000000068 TEE_UnmaskCancellation
0000000000009ef4 g     F .text	0000000000000410 mbedtls_mpi_self_test
00000000000055dc g     F .text	000000000000005c __utee_check_gp11_outbuf_annotation
000000000000221c g     F .text	000000000000000c _utee_storage_obj_seek
000000000000a530 g     F .text	0000000000000068 mbedtls_mpi_core_cond_swap
000000000000200c g     F .text	000000000000000c _utee_check_access_rights
000000000000a624 g     F .text	0000000000000090 mbedtls_mpi_core_read_be
0000000000002dc0 g     F .text	0000000000000180 __GP11_TEE_InvokeTACommand
00000000000079a0 g     F .text	0000000000000080 mbedtls_mpi_cmp_int
00000000000021d4 g     F .text	000000000000000c _utee_storage_reset_enum
00000000000056ac g     F .text	0000000000000030 __utee_check_attr_in_annotation
0000000000002150 g     F .text	000000000000000c _utee_authenc_update_payload
0000000000004ac4 g     F .text	000000000000006c TEE_BigIntMod
0000000000008be4 g     F .text	0000000000000098 mbedtls_mpi_mod_int
00000000000076a8 g     F .text	0000000000000060 mbedtls_mpi_read_binary_le
0000000000004908 g     F .text	00000000000001bc TEE_BigIntDiv
00000000000020e4 g     F .text	000000000000000c _utee_cryp_obj_alloc
000000000001ded8 g       .bss	0000000000000000 __ftrace_buf_start
000000000000caec g     F .text	0000000000000038 strlcpy
00000000000073a8 g     F .text	00000000000000dc mbedtls_mpi_copy
000000000000a378 g     F .text	000000000000000c mbedtls_mpi_core_clz
000000000000c284 g     F .text	0000000000000018 malloc_reset_stats
000000000000632c g     F .text	00000000000000ec TEE_GetPropertyAsIdentity
0000000000001378 g     F .text	000000000000004c __vsprintf
0000000000005fc0 g     F .text	00000000000000ec TEE_GetPropertyAsU64
0000000000002048 g     F .text	000000000000000c _utee_set_ta_time
0000000000001ff4 g     F .text	000000000000000c _utee_invoke_ta_command
000000000000c53c g     F .text	0000000000000028 realloc
0000000000007484 g     F .text	0000000000000094 mbedtls_mpi_swap
000000000000cd44 g     F .text	0000000000000114 base64_enc
000000000000cb24 g     F .text	00000000000000c8 mempool_alloc_pool
00000000000047e0 g     F .text	0000000000000120 TEE_BigIntMul
000000000000c5dc g     F .text	0000000000000008 raw_malloc_get_ctx_size
0000000000007790 g     F .text	0000000000000064 mbedtls_mpi_shift_l
00000000000078c4 g     F .text	00000000000000dc mbedtls_mpi_cmp_mpi
000000000000c4f4 g     F .text	0000000000000020 malloc_flags
0000000000002f78 g     F .text	0000000000000004 TEE_MemFill
000000000000b2e4 g     F .text	000000000000002c mbedtls_mpi_core_exp_mod_unsafe
000000000000c8f8 g     F .text	0000000000000014 malloc_add_pool
0000000000000280 g     F .text	0000000000000010 trace_get_level
0000000000007a20 g     F .text	00000000000000f8 mbedtls_mpi_add_abs
00000000000052d8 g     F .text	0000000000000010 TEE_BigIntFMMSizeInU32
0000000000005df8 g     F .text	00000000000000dc TEE_GetPropertyAsBool
000000000000c490 g     F .text	0000000000000024 raw_realloc
00000000000052b8 g     F .text	0000000000000004 TEE_BigIntInitFMM
000000000000209c g     F .text	000000000000000c _utee_cipher_init
0000000000001aac g     F .text	00000000000002a4 __utee_entry
0000000000005ed4 g     F .text	00000000000000ec TEE_GetPropertyAsU32
000000000000cf7c g       .text	0000000000000000 __text_end
0000000000004cb8 g     F .text	0000000000000110 TEE_BigIntRelativePrime
0000000000008820 g     F .text	00000000000000b4 mbedtls_mpi_mod_mpi
000000000000a464 g     F .text	0000000000000080 mbedtls_mpi_core_lt_ct
00000000000020c0 g     F .text	000000000000000c _utee_cryp_obj_get_info
000000000000a9e4 g     F .text	0000000000000044 mbedtls_mpi_core_sub
000000000000c104 g     F .text	00000000000000ec bpool
0000000000006424 g     F .text	0000000000000048 TEE_AllocatePropertyEnumerator
0000000000002054 g     F .text	000000000000000c _utee_cryp_state_alloc
000000000000261c g     F .text	0000000000000068 TEE_GetCancellationFlag
00000000000090c4 g     F .text	00000000000001e0 mbedtls_mpi_gcd
0000000000003060 g     F .text	0000000000000044 TEE_SetTAPersistentTime
000000000000b894 g     F .text	0000000000000028 mbedtls_zeroize_and_free
0000000000007768 g     F .text	0000000000000014 mbedtls_mpi_write_binary_le
000000000000caac g     F .text	000000000000001c memset
000000000000c414 g     F .text	0000000000000024 raw_memalign
0000000000002fe8 g     F .text	0000000000000078 TEE_GetTAPersistentTime
0000000000000588 g     F .text	0000000000000004 dhex_dump
000000000000a3d8 g     F .text	0000000000000034 mbedtls_mpi_core_bigendian_to_host
00000000000026ec g     F .text	0000000000000068 TEE_MaskCancellation
00000000000020d8 g     F .text	000000000000000c _utee_cryp_obj_get_attr
00000000000020b4 g     F .text	000000000000000c _utee_cipher_final
0000000000000264 g     F .text	000000000000001c trace_set_level
000000000000b364 g     F .text	000000000000001c mbedtls_mpi_core_to_mont_rep
000000000000b6e8 g     F .text	0000000000000090 mbedtls_ct_memcpy_offset
000000000000206c g     F .text	000000000000000c _utee_cryp_state_free
000000000000cac8 g     F .text	0000000000000024 strcmp
0000000000001fdc g     F .text	000000000000000c _utee_open_ta_session
0000000000003f20 g     F .text	00000000000000c4 TEE_BigIntConvertToS32
00000000000046e8 g     F .text	000000000000000c TEE_BigIntSub
0000000000000214 g     F .text	0000000000000008 tahead_get_trace_level
00000000000021e0 g     F .text	000000000000000c _utee_storage_start_enum
000000000000b524 g     F .text	00000000000000a0 mbedtls_ct_memmove_left
0000000000006790 g     F .text	00000000000000b4 tee_map_zi
0000000000009024 g     F .text	000000000000007c mbedtls_mpi_montred
000000000000c564 g     F .text	0000000000000028 memalign
0000000000003c48 g     F .text	0000000000000008 __GP11_TEE_BigIntInit
000000000000a8b8 g     F .text	0000000000000094 mbedtls_mpi_core_shift_l
0000000000003e64 g     F .text	00000000000000bc TEE_BigIntConvertFromS32
0000000000007cf0 g     F .text	0000000000000080 mbedtls_mpi_add_int
000000000000215c g     F .text	000000000000000c _utee_authenc_enc_final
000000000000c90c g     F .text	0000000000000014 malloc_buffer_is_within_alloced
00000000000020f0 g     F .text	000000000000000c _utee_cryp_obj_close
00000000000052c4 g     F .text	0000000000000004 TEE_BigIntInitFMMContext
0000000000002024 g     F .text	000000000000000c _utee_mask_cancellation
0000000000012648 g     O .bss	0000000000000008 __ta_no_share_malloc_ctx
00000000000021b0 g     F .text	000000000000000c _utee_storage_obj_rename
000000000000c4b4 g     F .text	0000000000000018 free_flags
0000000000002f40 g     F .text	0000000000000008 __GP11_TEE_CheckMemoryAccessRights
0000000000004900 g     F .text	0000000000000008 TEE_BigIntSquare
0000000000002204 g     F .text	000000000000000c _utee_storage_obj_write
000000000000a384 g     F .text	0000000000000054 mbedtls_mpi_core_bitlen
000000000000010c g     F .text	0000000000000034 TA_CreateEntryPoint
0000000000000194 g     F .text	0000000000000080 __ta_entry
0000000000015ed1 g     O .bss	0000000000000000 __ta_no_share_heap
0000000000002144 g     F .text	000000000000000c _utee_authenc_update_aad
0000000000008fd4 g     F .text	0000000000000028 mbedtls_mpi_montg_init
00000000000006ac g     F .text	00000000000000c4 snprintk
000000000000452c g     F .text	0000000000000080 TEE_BigIntGetBitCount
0000000000002114 g     F .text	000000000000000c _utee_cryp_obj_copy
0000000000004b48 g     F .text	000000000000000c TEE_BigIntMulMod
0000000000009658 g     F .text	0000000000000460 mbedtls_mpi_inv_mod
00000000000056dc g     F .text	0000000000000004 __utee_check_gp11_attr_in_annotation
0000000000012650 g     O .bss	0000000000000040 ta_params
00000000000082a4 g     F .text	00000000000004fc mbedtls_mpi_div_mpi
000000000000567c g     F .text	0000000000000004 __utee_check_gp11_outstring_annotation
000000000000768c g     F .text	000000000000001c mbedtls_mpi_size
000000000000b990 g     F .text	0000000000000314 bget
0000000000005308 g     F .text	0000000000000018 __GP11_TEE_BigIntFMMContextSizeInU32
0000000000006470 g     F .text	0000000000000010 TEE_StartPropertyEnumerator
0000000000002030 g     F .text	000000000000000c _utee_wait
00000000000075b0 g     F .text	000000000000008c mbedtls_mpi_set_bit
000000000000a40c g     F .text	0000000000000058 mbedtls_mpi_core_uint_le_mpi
00000000000031e4 g     F .text	000000000000005c TEE_Free
0000000000003328 g     F .text	0000000000000008 TEE_CacheInvalidate
0000000000006ddc g     F .text	0000000000000014 _assert_break
000000000000b294 g     F .text	0000000000000028 mbedtls_mpi_core_exp_mod_working_limbs
0000000000004b30 g     F .text	000000000000000c TEE_BigIntAddMod
00000000000052bc g     F .text	0000000000000008 __GP11_TEE_BigIntInitFMM
000000000000203c g     F .text	000000000000000c _utee_get_time
000000000000a94c g     F .text	000000000000003c mbedtls_mpi_core_add
00000000000065a4 g     F .text	0000000000000094 TEE_GetPropertyName
0000000000003310 g     F .text	0000000000000008 __GP11_TEE_Realloc
0000000000002108 g     F .text	000000000000000c _utee_cryp_obj_populate
000000000000a598 g     F .text	000000000000008c mbedtls_mpi_core_read_le
0000000000015ec8 g     O .bss	0000000000000008 mbedtls_ct_zero
0000000000002f6c g     F .text	0000000000000004 TEE_MemCompare
00000000000020a8 g     F .text	000000000000000c _utee_cipher_update
000000000000058c g     F .text	00000000000000c8 __vsnprintf
0000000000012638 g     O .bss	0000000000000010 __elf_phdr_info
00000000000090b0 g     F .text	0000000000000014 mbedtls_mpi_exp_mod_unsafe
0000000000002980 g     F .text	0000000000000160 TEE_OpenTASession
000000000000b778 g     F .text	00000000000000e4 mbedtls_ct_zeroize_if
000000000000b380 g     F .text	0000000000000074 mbedtls_mpi_core_from_mont_rep
000000000000140c g     F .text	0000000000000028 trace_ext_puts
0000000000005d54 g     F .text	00000000000000a4 __GP11_TEE_GetPropertyAsString
000000000000c770 g     F .text	0000000000000134 raw_malloc_buffer_is_within_alloced
0000000000001434 g     F .text	0000000000000008 trace_ext_get_thread_id
000000000000c700 g     F .text	0000000000000070 raw_malloc_buffer_overlaps_heap
0000000000002120 g     F .text	000000000000000c _utee_cryp_derive_key
0000000000006f68 g     F .text	0000000000000068 mbedtls_mpi_free
00000000000020fc g     F .text	000000000000000c _utee_cryp_obj_reset
0000000000003318 g     F .text	0000000000000008 TEE_CacheClean
0000000000001fd0 g     F .text	000000000000000c _utee_get_property_name_to_index
000000000000aca4 g     F .text	0000000000000100 mbedtls_mpi_core_montmul
000000000000c46c g     F .text	0000000000000024 raw_calloc
0000000000007160 g     F .text	00000000000000b0 mbedtls_mpi_safe_cond_swap
0000000000002138 g     F .text	000000000000000c _utee_authenc_init
00000000000013f0 g     F .text	000000000000001c strlen
0000000000004fa0 g     F .text	0000000000000278 TEE_BigIntComputeExtendedGcd
00000000000021bc g     F .text	000000000000000c _utee_storage_alloc_enum
0000000000004dc8 g     F .text	00000000000001d8 TEE_BigIntExpMod
0000000000002f84 g     F .text	0000000000000028 TEE_GetSystemTime
0000000000002180 g     F .text	000000000000000c _utee_asymm_verify
0000000000010e58 g     O .ta_head	0000000000000020 ta_head
000000000000bd2c g     F .text	000000000000030c brel
0000000000001ecc g     F .text	00000000000000c8 __ta_invoke_cmd
00000000000060ac g     F .text	00000000000000f0 __GP11_TEE_GetPropertyAsBinaryBlock
0000000000007b18 g     F .text	0000000000000124 mbedtls_mpi_sub_abs
00000000000092a4 g     F .text	000000000000006c mbedtls_mpi_fill_random
0000000000001e18 g     F .text	00000000000000b4 __ta_open_sess
0000000000002f48 g     F .text	000000000000000c TEE_SetInstanceData
0000000000002000 g     F .text	000000000000000c _utee_get_cancellation_flag
000000000000a4e4 g     F .text	000000000000004c mbedtls_mpi_core_cond_assign
0000000000008c7c g     F .text	000000000000027c mbedtls_mpi_write_string
000000000000c58c g     F .text	0000000000000038 aligned_alloc
000000000000ac70 g     F .text	0000000000000034 mbedtls_mpi_core_montmul_init
00000000000052d0 g     F .text	0000000000000008 TEE_BigIntInitFMMContext1
000000000000b078 g     F .text	0000000000000068 mbedtls_mpi_core_get_mont_r2_unsafe
00000000000025f4 g     F .text	0000000000000028 TEE_CloseTASession
0000000000002198 g     F .text	000000000000000c _utee_storage_obj_create
00000000000052e8 g     F .text	0000000000000018 __GP11_TEE_BigIntFMMSizeInU32
000000000000abec g     F .text	0000000000000084 mbedtls_mpi_core_mul
000000000000c5c4 g     F .text	000000000000000c free
000000000000c1f0 g     F .text	0000000000000094 bstats
0000000000015ec0 g     O .bss	0000000000000008 mbedtls_mpi_mempool
0000000000002090 g     F .text	000000000000000c _utee_hash_final



Disassembly of section .text:

0000000000000000 <memcpy>:
memcpy():
/home/davy/research/pynq-tee/amd-zu3-optee/optee_os/lib/libutils/isoc/newlib/memcpy.c:106
       0:	f1007c5f 	cmp	x2, #0x1f
       4:	540001a8 	b.hi	38 <memcpy+0x38>  // b.pmore
/home/davy/research/pynq-tee/amd-zu3-optee/optee_os/lib/libutils/isoc/newlib/memcpy.c:99
       8:	aa0003e5 	mov	x5, x0
/home/davy/research/pynq-tee/amd-zu3-optee/optee_os/lib/libutils/isoc/newlib/memcpy.c:130
       c:	d1000446 	sub	x6, x2, #0x1
      10:	b4000122 	cbz	x2, 34 <memcpy+0x34>
/home/davy/research/pynq-tee/amd-zu3-optee/optee_os/lib/libutils/isoc/newlib/memcpy.c:99
      14:	d2800002 	mov	x2, #0x0                   	// #0
      18:	d503201f 	nop
      1c:	d503201f 	nop
/home/davy/research/pynq-tee/amd-zu3-optee/optee_os/lib/libutils/isoc/newlib/memcpy.c:131
      20:	38626824 	ldrb	w4, [x1, x2]
/home/davy/research/pynq-tee/amd-zu3-optee/optee_os/lib/libutils/isoc/newlib/memcpy.c:130
      24:	eb0200df 	cmp	x6, x2
/home/davy/research/pynq-tee/amd-zu3-optee/optee_os/lib/libutils/isoc/newlib/memcpy.c:131
      28:	382268a4 	strb	w4, [x5, x2]
/home/davy/research/pynq-tee/amd-zu3-optee/optee_os/lib/libutils/isoc/newlib/memcpy.c:130
      2c:	91000442 	add	x2, x2, #0x1
      30:	54ffff81 	b.ne	20 <memcpy+0x20>  // b.any
/home/davy/research/pynq-tee/amd-zu3-optee/optee_os/lib/libutils/isoc/newlib/memcpy.c:135
      34:	d65f03c0 	ret
/home/davy/research/pynq-tee/amd-zu3-optee/optee_os/lib/libutils/isoc/newlib/memcpy.c:106 (discriminator 1)
      38:	aa010003 	orr	x3, x0, x1
      3c:	aa0103e7 	mov	x7, x1
      40:	f240087f 	tst	x3, #0x7
      44:	540005a1 	b.ne	f8 <memcpy+0xf8>  // b.any
      48:	d1008044 	sub	x4, x2, #0x20
/home/davy/research/pynq-tee/amd-zu3-optee/optee_os/lib/libutils/isoc/newlib/memcpy.c:107
      4c:	aa0003e3 	mov	x3, x0
      50:	927be886 	and	x6, x4, #0xffffffffffffffe0
      54:	910080c6 	add	x6, x6, #0x20
      58:	8b060006 	add	x6, x0, x6
      5c:	d503201f 	nop
/home/davy/research/pynq-tee/amd-zu3-optee/optee_os/lib/libutils/isoc/newlib/memcpy.c:112
      60:	f9400025 	ldr	x5, [x1]
      64:	f9000065 	str	x5, [x3]
/home/davy/research/pynq-tee/amd-zu3-optee/optee_os/lib/libutils/isoc/newlib/memcpy.c:115
      68:	91008021 	add	x1, x1, #0x20
      6c:	91008063 	add	x3, x3, #0x20
/home/davy/research/pynq-tee/amd-zu3-optee/optee_os/lib/libutils/isoc/newlib/memcpy.c:113
      70:	f85e8025 	ldur	x5, [x1, #-24]
      74:	f81e8065 	stur	x5, [x3, #-24]
/home/davy/research/pynq-tee/amd-zu3-optee/optee_os/lib/libutils/isoc/newlib/memcpy.c:114
      78:	f85f0025 	ldur	x5, [x1, #-16]
      7c:	f81f0065 	stur	x5, [x3, #-16]
/home/davy/research/pynq-tee/amd-zu3-optee/optee_os/lib/libutils/isoc/newlib/memcpy.c:115
      80:	f85f8025 	ldur	x5, [x1, #-8]
      84:	f81f8065 	stur	x5, [x3, #-8]
/home/davy/research/pynq-tee/amd-zu3-optee/optee_os/lib/libutils/isoc/newlib/memcpy.c:111
      88:	eb06007f 	cmp	x3, x6
      8c:	54fffea1 	b.ne	60 <memcpy+0x60>  // b.any
      90:	927be881 	and	x1, x4, #0xffffffffffffffe0
      94:	92401046 	and	x6, x2, #0x1f
      98:	8b0100e4 	add	x4, x7, x1
      9c:	8b010003 	add	x3, x0, x1
      a0:	91008081 	add	x1, x4, #0x20
      a4:	91008065 	add	x5, x3, #0x20
      a8:	aa0103e9 	mov	x9, x1
/home/davy/research/pynq-tee/amd-zu3-optee/optee_os/lib/libutils/isoc/newlib/memcpy.c:120
      ac:	f27d045f 	tst	x2, #0x18
      b0:	540002a0 	b.eq	104 <memcpy+0x104>  // b.none
      b4:	d10020c6 	sub	x6, x6, #0x8
      b8:	cb070007 	sub	x7, x0, x7
      bc:	927d7cc6 	and	x6, x6, #0x7fffffff8
      c0:	8b060083 	add	x3, x4, x6
      c4:	9100a063 	add	x3, x3, #0x28
      c8:	aa0103e8 	mov	x8, x1
      cc:	8b070024 	add	x4, x1, x7
/home/davy/research/pynq-tee/amd-zu3-optee/optee_os/lib/libutils/isoc/newlib/memcpy.c:121
      d0:	91002021 	add	x1, x1, #0x8
      d4:	f9400108 	ldr	x8, [x8]
      d8:	f9000088 	str	x8, [x4]
/home/davy/research/pynq-tee/amd-zu3-optee/optee_os/lib/libutils/isoc/newlib/memcpy.c:120
      dc:	eb03003f 	cmp	x1, x3
      e0:	54ffff41 	b.ne	c8 <memcpy+0xc8>  // b.any
      e4:	910020c3 	add	x3, x6, #0x8
      e8:	92400842 	and	x2, x2, #0x7
/home/davy/research/pynq-tee/amd-zu3-optee/optee_os/lib/libutils/isoc/newlib/memcpy.c:127
      ec:	8b090061 	add	x1, x3, x9
/home/davy/research/pynq-tee/amd-zu3-optee/optee_os/lib/libutils/isoc/newlib/memcpy.c:126
      f0:	8b050065 	add	x5, x3, x5
      f4:	17ffffc6 	b	c <memcpy+0xc>
/home/davy/research/pynq-tee/amd-zu3-optee/optee_os/lib/libutils/isoc/newlib/memcpy.c:130
      f8:	d1000446 	sub	x6, x2, #0x1
/home/davy/research/pynq-tee/amd-zu3-optee/optee_os/lib/libutils/isoc/newlib/memcpy.c:99
      fc:	aa0003e5 	mov	x5, x0
     100:	17ffffc5 	b	14 <memcpy+0x14>
/home/davy/research/pynq-tee/amd-zu3-optee/optee_os/lib/libutils/isoc/newlib/memcpy.c:120
     104:	aa0603e2 	mov	x2, x6
     108:	17ffffc1 	b	c <memcpy+0xc>

000000000000010c <TA_CreateEntryPoint>:
TA_CreateEntryPoint():
/home/davy/research/pynq-tee/amd-zu3-optee/secure_switch/ta/secure_switch_ta.c:18
     10c:	a9bf7bfd 	stp	x29, x30, [sp, #-16]!
/home/davy/research/pynq-tee/amd-zu3-optee/secure_switch/ta/secure_switch_ta.c:19
     110:	52800023 	mov	w3, #0x1                   	// #1
     114:	52800062 	mov	w2, #0x3                   	// #3
/home/davy/research/pynq-tee/amd-zu3-optee/secure_switch/ta/secure_switch_ta.c:18
     118:	910003fd 	mov	x29, sp
/home/davy/research/pynq-tee/amd-zu3-optee/secure_switch/ta/secure_switch_ta.c:19
     11c:	52800261 	mov	w1, #0x13                  	// #19
     120:	f0000064 	adrp	x4, f000 <__text_end+0x2084>
     124:	90000080 	adrp	x0, 10000 <gcd_pairs+0x90>
     128:	913e5084 	add	x4, x4, #0xf94
     12c:	912ea800 	add	x0, x0, #0xbaa
     130:	940000e0 	bl	4b0 <trace_printf>
/home/davy/research/pynq-tee/amd-zu3-optee/secure_switch/ta/secure_switch_ta.c:21
     134:	52800000 	mov	w0, #0x0                   	// #0
     138:	a8c17bfd 	ldp	x29, x30, [sp], #16
     13c:	d65f03c0 	ret

0000000000000140 <TA_DestroyEntryPoint>:
TA_DestroyEntryPoint():
/home/davy/research/pynq-tee/amd-zu3-optee/secure_switch/ta/secure_switch_ta.c:23
     140:	d65f03c0 	ret

0000000000000144 <__GP11_TA_OpenSessionEntryPoint>:
__GP11_TA_OpenSessionEntryPoint():
/home/davy/research/pynq-tee/amd-zu3-optee/secure_switch/ta/secure_switch_ta.c:34
     144:	7100001f 	cmp	w0, #0x0
/home/davy/research/pynq-tee/amd-zu3-optee/secure_switch/ta/secure_switch_ta.c:36
     148:	129fff21 	mov	w1, #0xffff0006            	// #-65530
     14c:	1a810000 	csel	w0, w0, w1, eq	// eq = none
     150:	d65f03c0 	ret

0000000000000154 <TA_CloseSessionEntryPoint>:
TA_CloseSessionEntryPoint():
/home/davy/research/pynq-tee/amd-zu3-optee/secure_switch/ta/secure_switch_ta.c:38
     154:	d65f03c0 	ret

0000000000000158 <__GP11_TA_InvokeCommandEntryPoint>:
__GP11_TA_InvokeCommandEntryPoint():
/home/davy/research/pynq-tee/amd-zu3-optee/secure_switch/ta/secure_switch_ta.c:83
     158:	340000a1 	cbz	w1, 16c <__GP11_TA_InvokeCommandEntryPoint+0x14>
     15c:	7100043f 	cmp	w1, #0x1
     160:	54000100 	b.eq	180 <__GP11_TA_InvokeCommandEntryPoint+0x28>  // b.none
cmd_benchmark():
/home/davy/research/pynq-tee/amd-zu3-optee/secure_switch/ta/secure_switch_ta.c:83
     164:	129fff20 	mov	w0, #0xffff0006            	// #-65530
     168:	14000005 	b	17c <__GP11_TA_InvokeCommandEntryPoint+0x24>
cmd_read():
/home/davy/research/pynq-tee/amd-zu3-optee/secure_switch/ta/secure_switch_ta.c:49
     16c:	7100085f 	cmp	w2, #0x2
     170:	54ffffa1 	b.ne	164 <__GP11_TA_InvokeCommandEntryPoint+0xc>  // b.any
/home/davy/research/pynq-tee/amd-zu3-optee/secure_switch/ta/secure_switch_ta.c:52
     174:	b900007f 	str	wzr, [x3]
/home/davy/research/pynq-tee/amd-zu3-optee/secure_switch/ta/secure_switch_ta.c:53
     178:	52800000 	mov	w0, #0x0                   	// #0
__GP11_TA_InvokeCommandEntryPoint():
/home/davy/research/pynq-tee/amd-zu3-optee/secure_switch/ta/secure_switch_ta.c:91
     17c:	d65f03c0 	ret
cmd_benchmark():
/home/davy/research/pynq-tee/amd-zu3-optee/secure_switch/ta/secure_switch_ta.c:69
     180:	7100885f 	cmp	w2, #0x22
     184:	54ffff01 	b.ne	164 <__GP11_TA_InvokeCommandEntryPoint+0xc>  // b.any
/home/davy/research/pynq-tee/amd-zu3-optee/secure_switch/ta/secure_switch_ta.c:72
     188:	f900007f 	str	xzr, [x3]
/home/davy/research/pynq-tee/amd-zu3-optee/secure_switch/ta/secure_switch_ta.c:74
     18c:	f900087f 	str	xzr, [x3, #16]
/home/davy/research/pynq-tee/amd-zu3-optee/secure_switch/ta/secure_switch_ta.c:76
     190:	17fffffa 	b	178 <__GP11_TA_InvokeCommandEntryPoint+0x20>

0000000000000194 <__ta_entry>:
__ta_entry():
/home/davy/research/pynq-tee/amd-zu3-optee/optee_os/out/arm-plat-zynqmp/export-ta_arm64/src/user_ta_header.c:53
     194:	a9bb7bfd 	stp	x29, x30, [sp, #-80]!
     198:	910003fd 	mov	x29, sp
     19c:	f9001bf7 	str	x23, [sp, #48]
/home/davy/research/pynq-tee/amd-zu3-optee/optee_os/out/arm-plat-zynqmp/export-ta_arm64/src/user_ta_header.c:57
     1a0:	b00000b7 	adrp	x23, 15000 <data.18+0x2958>
/home/davy/research/pynq-tee/amd-zu3-optee/optee_os/out/arm-plat-zynqmp/export-ta_arm64/src/user_ta_header.c:53
     1a4:	a90153f3 	stp	x19, x20, [sp, #16]
     1a8:	aa0003f3 	mov	x19, x0
/home/davy/research/pynq-tee/amd-zu3-optee/optee_os/out/arm-plat-zynqmp/export-ta_arm64/src/user_ta_header.c:57
     1ac:	397b42e0 	ldrb	w0, [x23, #3792]
/home/davy/research/pynq-tee/amd-zu3-optee/optee_os/out/arm-plat-zynqmp/export-ta_arm64/src/user_ta_header.c:53
     1b0:	a9025bf5 	stp	x21, x22, [sp, #32]
     1b4:	aa0103f4 	mov	x20, x1
     1b8:	aa0203f5 	mov	x21, x2
     1bc:	aa0303f6 	mov	x22, x3
/home/davy/research/pynq-tee/amd-zu3-optee/optee_os/out/arm-plat-zynqmp/export-ta_arm64/src/user_ta_header.c:57
     1c0:	370001e0 	tbnz	w0, #0, 1fc <__ta_entry+0x68>
/home/davy/research/pynq-tee/amd-zu3-optee/optee_os/out/arm-plat-zynqmp/export-ta_arm64/src/user_ta_header.c:60
     1c4:	910123e0 	add	x0, sp, #0x48
     1c8:	d2800101 	mov	x1, #0x8                   	// #8
/home/davy/research/pynq-tee/amd-zu3-optee/optee_os/out/arm-plat-zynqmp/export-ta_arm64/src/user_ta_header.c:58
     1cc:	f90027ff 	str	xzr, [sp, #72]
/home/davy/research/pynq-tee/amd-zu3-optee/optee_os/out/arm-plat-zynqmp/export-ta_arm64/src/user_ta_header.c:60
     1d0:	940007d7 	bl	212c <_utee_cryp_random_number_generate>
/home/davy/research/pynq-tee/amd-zu3-optee/optee_os/out/arm-plat-zynqmp/export-ta_arm64/src/user_ta_header.c:62
     1d4:	34000060 	cbz	w0, 1e0 <__ta_entry+0x4c>
/home/davy/research/pynq-tee/amd-zu3-optee/optee_os/out/arm-plat-zynqmp/export-ta_arm64/src/user_ta_header.c:83
     1d8:	2a0003e0 	mov	w0, w0
     1dc:	94000771 	bl	1fa0 <_utee_return>
/home/davy/research/pynq-tee/amd-zu3-optee/optee_os/out/arm-plat-zynqmp/export-ta_arm64/src/user_ta_header.c:68
     1e0:	d0000080 	adrp	x0, 12000 <_DYNAMIC>
/home/davy/research/pynq-tee/amd-zu3-optee/optee_os/out/arm-plat-zynqmp/export-ta_arm64/src/user_ta_header.c:66
     1e4:	f94027e1 	ldr	x1, [sp, #72]
/home/davy/research/pynq-tee/amd-zu3-optee/optee_os/out/arm-plat-zynqmp/export-ta_arm64/src/user_ta_header.c:68
     1e8:	f9409800 	ldr	x0, [x0, #304]
/home/davy/research/pynq-tee/amd-zu3-optee/optee_os/out/arm-plat-zynqmp/export-ta_arm64/src/user_ta_header.c:66
     1ec:	9278dc21 	and	x1, x1, #0xffffffffffffff00
/home/davy/research/pynq-tee/amd-zu3-optee/optee_os/out/arm-plat-zynqmp/export-ta_arm64/src/user_ta_header.c:68
     1f0:	f9000001 	str	x1, [x0]
/home/davy/research/pynq-tee/amd-zu3-optee/optee_os/out/arm-plat-zynqmp/export-ta_arm64/src/user_ta_header.c:69
     1f4:	52800020 	mov	w0, #0x1                   	// #1
     1f8:	393b42e0 	strb	w0, [x23, #3792]
/home/davy/research/pynq-tee/amd-zu3-optee/optee_os/out/arm-plat-zynqmp/export-ta_arm64/src/user_ta_header.c:72
     1fc:	aa1603e3 	mov	x3, x22
     200:	aa1503e2 	mov	x2, x21
     204:	aa1403e1 	mov	x1, x20
     208:	aa1303e0 	mov	x0, x19
     20c:	94000628 	bl	1aac <__utee_entry>
     210:	17fffff2 	b	1d8 <__ta_entry+0x44>

0000000000000214 <tahead_get_trace_level>:
tahead_get_trace_level():
/home/davy/research/pynq-tee/amd-zu3-optee/optee_os/out/arm-plat-zynqmp/export-ta_arm64/src/user_ta_header.c:198
     214:	52800080 	mov	w0, #0x4                   	// #4
     218:	d65f03c0 	ret

000000000000021c <TA_OpenSessionEntryPoint>:
TA_OpenSessionEntryPoint():
/home/davy/research/pynq-tee/amd-zu3-optee/optee_os/out/arm-plat-zynqmp/export-ta_arm64/src/user_ta_header.c:208
     21c:	d0000083 	adrp	x3, 12000 <_DYNAMIC>
     220:	f940cc63 	ldr	x3, [x3, #408]
     224:	140006fd 	b	1e18 <__ta_open_sess>

0000000000000228 <TA_InvokeCommandEntryPoint>:
TA_InvokeCommandEntryPoint():
/home/davy/research/pynq-tee/amd-zu3-optee/optee_os/out/arm-plat-zynqmp/export-ta_arm64/src/user_ta_header.c:216
     228:	d0000084 	adrp	x4, 12000 <_DYNAMIC>
     22c:	f940c084 	ldr	x4, [x4, #384]
     230:	14000727 	b	1ecc <__ta_invoke_cmd>

0000000000000234 <__stack_chk_fail>:
__stack_chk_fail():
/home/davy/research/pynq-tee/amd-zu3-optee/optee_os/lib/libutils/isoc/stack_check.c:24
     234:	a9bf7bfd 	stp	x29, x30, [sp, #-16]!
/home/davy/research/pynq-tee/amd-zu3-optee/optee_os/lib/libutils/isoc/stack_check.c:25
     238:	90000084 	adrp	x4, 10000 <gcd_pairs+0x90>
     23c:	52800023 	mov	w3, #0x1                   	// #1
/home/davy/research/pynq-tee/amd-zu3-optee/optee_os/lib/libutils/isoc/stack_check.c:24
     240:	910003fd 	mov	x29, sp
/home/davy/research/pynq-tee/amd-zu3-optee/optee_os/lib/libutils/isoc/stack_check.c:25
     244:	9102bc84 	add	x4, x4, #0xaf
     248:	52800022 	mov	w2, #0x1                   	// #1
     24c:	52800001 	mov	w1, #0x0                   	// #0
     250:	d2800000 	mov	x0, #0x0                   	// #0
     254:	94000097 	bl	4b0 <trace_printf>
/home/davy/research/pynq-tee/amd-zu3-optee/optee_os/lib/libutils/isoc/stack_check.c:27 (discriminator 1)
     258:	1299fe00 	mov	w0, #0xffff300f            	// #-53233
     25c:	9400074e 	bl	1f94 <_utee_panic>
/home/davy/research/pynq-tee/amd-zu3-optee/optee_os/lib/libutils/isoc/stack_check.c:26
     260:	17fffffe 	b	258 <__stack_chk_fail+0x24>

0000000000000264 <trace_set_level>:
trace_set_level():
/home/davy/research/pynq-tee/amd-zu3-optee/optee_os/lib/libutils/ext/trace.c:29
     264:	7100141f 	cmp	w0, #0x5
     268:	52800081 	mov	w1, #0x4                   	// #4
     26c:	1a813000 	csel	w0, w0, w1, cc	// cc = lo, ul, last
     270:	d0000081 	adrp	x1, 12000 <_DYNAMIC>
     274:	f940a821 	ldr	x1, [x1, #336]
     278:	b9000020 	str	w0, [x1]
/home/davy/research/pynq-tee/amd-zu3-optee/optee_os/lib/libutils/ext/trace.c:30
     27c:	d65f03c0 	ret

0000000000000280 <trace_get_level>:
trace_get_level():
/home/davy/research/pynq-tee/amd-zu3-optee/optee_os/lib/libutils/ext/trace.c:34
     280:	d0000080 	adrp	x0, 12000 <_DYNAMIC>
/home/davy/research/pynq-tee/amd-zu3-optee/optee_os/lib/libutils/ext/trace.c:35
     284:	f940a800 	ldr	x0, [x0, #336]
     288:	b9400000 	ldr	w0, [x0]
     28c:	d65f03c0 	ret

0000000000000290 <trace_vprintf>:
trace_vprintf():
/home/davy/research/pynq-tee/amd-zu3-optee/optee_os/lib/libutils/ext/trace.c:129
     290:	d10643ff 	sub	sp, sp, #0x190
     294:	a9137bfd 	stp	x29, x30, [sp, #304]
     298:	9104c3fd 	add	x29, sp, #0x130
     29c:	a9176bf9 	stp	x25, x26, [sp, #368]
     2a0:	2a0103f9 	mov	w25, w1
     2a4:	d0000081 	adrp	x1, 12000 <_DYNAMIC>
     2a8:	a9155bf5 	stp	x21, x22, [sp, #336]
     2ac:	aa0003f6 	mov	x22, x0
     2b0:	aa0103f5 	mov	x21, x1
     2b4:	f9409820 	ldr	x0, [x1, #304]
     2b8:	a91453f3 	stp	x19, x20, [sp, #320]
     2bc:	2a0203f3 	mov	w19, w2
     2c0:	a91663f7 	stp	x23, x24, [sp, #352]
     2c4:	aa0403f7 	mov	x23, x4
     2c8:	aa0503f8 	mov	x24, x5
     2cc:	a91873fb 	stp	x27, x28, [sp, #384]
/home/davy/research/pynq-tee/amd-zu3-optee/optee_os/lib/libutils/ext/trace.c:134
     2d0:	1200007b 	and	w27, w3, #0x1
/home/davy/research/pynq-tee/amd-zu3-optee/optee_os/lib/libutils/ext/trace.c:129
     2d4:	f9400002 	ldr	x2, [x0]
     2d8:	f90097e2 	str	x2, [sp, #296]
     2dc:	d2800002 	mov	x2, #0x0                   	// #0
/home/davy/research/pynq-tee/amd-zu3-optee/optee_os/lib/libutils/ext/trace.c:134
     2e0:	36000b03 	tbz	w3, #0, 440 <trace_vprintf+0x1b0>
/home/davy/research/pynq-tee/amd-zu3-optee/optee_os/lib/libutils/ext/trace.c:134 (discriminator 1)
     2e4:	f940a820 	ldr	x0, [x1, #336]
     2e8:	b9400000 	ldr	w0, [x0]
     2ec:	6b13001f 	cmp	w0, w19
     2f0:	540009ab 	b.lt	424 <trace_vprintf+0x194>  // b.tstop
trace_level_to_string():
/home/davy/research/pynq-tee/amd-zu3-optee/optee_os/lib/libutils/ext/trace.c:47
     2f4:	7100167f 	cmp	w19, #0x5
/home/davy/research/pynq-tee/amd-zu3-optee/optee_os/lib/libutils/ext/trace.c:55
     2f8:	90000080 	adrp	x0, 10000 <gcd_pairs+0x90>
/home/davy/research/pynq-tee/amd-zu3-optee/optee_os/lib/libutils/ext/trace.c:47
     2fc:	1a9f3261 	csel	w1, w19, wzr, cc	// cc = lo, ul, last
/home/davy/research/pynq-tee/amd-zu3-optee/optee_os/lib/libutils/ext/trace.c:55
     300:	912ef800 	add	x0, x0, #0xbbe
     304:	3861c803 	ldrb	w3, [x0, w1, sxtw]
trace_vprintf():
/home/davy/research/pynq-tee/amd-zu3-optee/optee_os/lib/libutils/ext/trace.c:138
     308:	9100a3f4 	add	x20, sp, #0x28
     30c:	90000082 	adrp	x2, 10000 <gcd_pairs+0x90>
     310:	aa1403e0 	mov	x0, x20
     314:	91031c42 	add	x2, x2, #0xc7
     318:	d2802001 	mov	x1, #0x100                 	// #256
     31c:	940000e4 	bl	6ac <snprintk>
/home/davy/research/pynq-tee/amd-zu3-optee/optee_os/lib/libutils/ext/trace.c:140
     320:	37f80820 	tbnz	w0, #31, 424 <trace_vprintf+0x194>
/home/davy/research/pynq-tee/amd-zu3-optee/optee_os/lib/libutils/ext/trace.c:145
     324:	f940b2a3 	ldr	x3, [x21, #352]
     328:	d280201c 	mov	x28, #0x100                 	// #256
/home/davy/research/pynq-tee/amd-zu3-optee/optee_os/lib/libutils/ext/trace.c:142
     32c:	93407c1a 	sxtw	x26, w0
/home/davy/research/pynq-tee/amd-zu3-optee/optee_os/lib/libutils/ext/trace.c:145
     330:	cb20c381 	sub	x1, x28, w0, sxtw
     334:	90000082 	adrp	x2, 10000 <gcd_pairs+0x90>
     338:	8b20c280 	add	x0, x20, w0, sxtw
     33c:	91032c42 	add	x2, x2, #0xcb
     340:	940000db 	bl	6ac <snprintk>
/home/davy/research/pynq-tee/amd-zu3-optee/optee_os/lib/libutils/ext/trace.c:147
     344:	37f80700 	tbnz	w0, #31, 424 <trace_vprintf+0x194>
/home/davy/research/pynq-tee/amd-zu3-optee/optee_os/lib/libutils/ext/trace.c:149
     348:	8b20c35a 	add	x26, x26, w0, sxtw
/home/davy/research/pynq-tee/amd-zu3-optee/optee_os/lib/libutils/ext/trace.c:151
     34c:	3400091b 	cbz	w27, 46c <trace_vprintf+0x1dc>
/home/davy/research/pynq-tee/amd-zu3-optee/optee_os/lib/libutils/ext/trace.c:151 (discriminator 1)
     350:	52800340 	mov	w0, #0x1a                  	// #26
     354:	1ad32400 	lsr	w0, w0, w19
     358:	360008a0 	tbz	w0, #0, 46c <trace_vprintf+0x1dc>
print_thread_id():
/home/davy/research/pynq-tee/amd-zu3-optee/optee_os/lib/libutils/ext/trace.c:67
     35c:	94000436 	bl	1434 <trace_ext_get_thread_id>
trace_vprintf():
/home/davy/research/pynq-tee/amd-zu3-optee/optee_os/lib/libutils/ext/trace.c:165
     360:	8b1a029b 	add	x27, x20, x26
     364:	cb1a039c 	sub	x28, x28, x26
print_thread_id():
/home/davy/research/pynq-tee/amd-zu3-optee/optee_os/lib/libutils/ext/trace.c:67
     368:	2a0003e4 	mov	w4, w0
/home/davy/research/pynq-tee/amd-zu3-optee/optee_os/lib/libutils/ext/trace.c:69
     36c:	37f806e0 	tbnz	w0, #31, 448 <trace_vprintf+0x1b8>
/home/davy/research/pynq-tee/amd-zu3-optee/optee_os/lib/libutils/ext/trace.c:70
     370:	90000082 	adrp	x2, 10000 <gcd_pairs+0x90>
     374:	aa1c03e1 	mov	x1, x28
     378:	91033c42 	add	x2, x2, #0xcf
     37c:	aa1b03e0 	mov	x0, x27
     380:	52800023 	mov	w3, #0x1                   	// #1
     384:	940000ca 	bl	6ac <snprintk>
trace_vprintf():
/home/davy/research/pynq-tee/amd-zu3-optee/optee_os/lib/libutils/ext/trace.c:166
     388:	37f804e0 	tbnz	w0, #31, 424 <trace_vprintf+0x194>
/home/davy/research/pynq-tee/amd-zu3-optee/optee_os/lib/libutils/ext/trace.c:168
     38c:	8b20c353 	add	x19, x26, w0, sxtw
/home/davy/research/pynq-tee/amd-zu3-optee/optee_os/lib/libutils/ext/trace.c:170
     390:	b4000176 	cbz	x22, 3bc <trace_vprintf+0x12c>
/home/davy/research/pynq-tee/amd-zu3-optee/optee_os/lib/libutils/ext/trace.c:171
     394:	90000082 	adrp	x2, 10000 <gcd_pairs+0x90>
     398:	d2802001 	mov	x1, #0x100                 	// #256
     39c:	2a1903e4 	mov	w4, w25
     3a0:	aa1603e3 	mov	x3, x22
     3a4:	91036842 	add	x2, x2, #0xda
     3a8:	cb130021 	sub	x1, x1, x19
     3ac:	8b130280 	add	x0, x20, x19
     3b0:	940000bf 	bl	6ac <snprintk>
/home/davy/research/pynq-tee/amd-zu3-optee/optee_os/lib/libutils/ext/trace.c:173
     3b4:	37f80380 	tbnz	w0, #31, 424 <trace_vprintf+0x194>
/home/davy/research/pynq-tee/amd-zu3-optee/optee_os/lib/libutils/ext/trace.c:175
     3b8:	8b20c273 	add	x19, x19, w0, sxtw
/home/davy/research/pynq-tee/amd-zu3-optee/optee_os/lib/libutils/ext/trace.c:185
     3bc:	aa1803e1 	mov	x1, x24
     3c0:	d2800402 	mov	x2, #0x20                  	// #32
     3c4:	910003e0 	mov	x0, sp
     3c8:	97ffff0e 	bl	0 <memcpy>
     3cc:	d2802001 	mov	x1, #0x100                 	// #256
     3d0:	aa0003e3 	mov	x3, x0
     3d4:	aa1703e2 	mov	x2, x23
     3d8:	cb130021 	sub	x1, x1, x19
     3dc:	8b130280 	add	x0, x20, x19
     3e0:	9400009d 	bl	654 <vsnprintk>
/home/davy/research/pynq-tee/amd-zu3-optee/optee_os/lib/libutils/ext/trace.c:186
     3e4:	7100001f 	cmp	w0, #0x0
     3e8:	5400004d 	b.le	3f0 <trace_vprintf+0x160>
/home/davy/research/pynq-tee/amd-zu3-optee/optee_os/lib/libutils/ext/trace.c:187
     3ec:	8b20c273 	add	x19, x19, w0, sxtw
/home/davy/research/pynq-tee/amd-zu3-optee/optee_os/lib/libutils/ext/trace.c:189
     3f0:	f103fa7f 	cmp	x19, #0xfe
     3f4:	d2801fc0 	mov	x0, #0xfe                  	// #254
     3f8:	9a809273 	csel	x19, x19, x0, ls	// ls = plast
/home/davy/research/pynq-tee/amd-zu3-optee/optee_os/lib/libutils/ext/trace.c:192
     3fc:	52800140 	mov	w0, #0xa                   	// #10
     400:	38336a80 	strb	w0, [x20, x19]
/home/davy/research/pynq-tee/amd-zu3-optee/optee_os/lib/libutils/ext/trace.c:193
     404:	b4000093 	cbz	x19, 414 <trace_vprintf+0x184>
/home/davy/research/pynq-tee/amd-zu3-optee/optee_os/lib/libutils/ext/trace.c:193 (discriminator 1)
     408:	38736a80 	ldrb	w0, [x20, x19]
     40c:	7100281f 	cmp	w0, #0xa
     410:	540003c0 	b.eq	488 <trace_vprintf+0x1f8>  // b.none
/home/davy/research/pynq-tee/amd-zu3-optee/optee_os/lib/libutils/ext/trace.c:196
     414:	9100abe0 	add	x0, sp, #0x2a
     418:	3833681f 	strb	wzr, [x0, x19]
/home/davy/research/pynq-tee/amd-zu3-optee/optee_os/lib/libutils/ext/trace.c:198
     41c:	aa1403e0 	mov	x0, x20
     420:	940003fb 	bl	140c <trace_ext_puts>
/home/davy/research/pynq-tee/amd-zu3-optee/optee_os/lib/libutils/ext/trace.c:199
     424:	f9409ab5 	ldr	x21, [x21, #304]
     428:	f94097e0 	ldr	x0, [sp, #296]
     42c:	f94002a1 	ldr	x1, [x21]
     430:	eb010000 	subs	x0, x0, x1
     434:	d2800001 	mov	x1, #0x0                   	// #0
     438:	540002c0 	b.eq	490 <trace_vprintf+0x200>  // b.none
     43c:	97ffff7e 	bl	234 <__stack_chk_fail>
trace_level_to_string():
/home/davy/research/pynq-tee/amd-zu3-optee/optee_os/lib/libutils/ext/trace.c:50
     440:	528009a3 	mov	w3, #0x4d                  	// #77
     444:	17ffffb1 	b	308 <trace_vprintf+0x78>
print_thread_id():
/home/davy/research/pynq-tee/amd-zu3-optee/optee_os/lib/libutils/ext/trace.c:72
     448:	aa1c03e1 	mov	x1, x28
     44c:	aa1b03e0 	mov	x0, x27
     450:	90000084 	adrp	x4, 10000 <gcd_pairs+0x90>
     454:	52800023 	mov	w3, #0x1                   	// #1
     458:	9120a884 	add	x4, x4, #0x82a
     45c:	90000082 	adrp	x2, 10000 <gcd_pairs+0x90>
     460:	91035442 	add	x2, x2, #0xd5
     464:	94000092 	bl	6ac <snprintk>
     468:	17ffffc8 	b	388 <trace_vprintf+0xf8>
trace_vprintf():
/home/davy/research/pynq-tee/amd-zu3-optee/optee_os/lib/libutils/ext/trace.c:179
     46c:	f103fb5f 	cmp	x26, #0xfe
     470:	54fffda8 	b.hi	424 <trace_vprintf+0x194>  // b.pmore
/home/davy/research/pynq-tee/amd-zu3-optee/optee_os/lib/libutils/ext/trace.c:181
     474:	91000753 	add	x19, x26, #0x1
     478:	52800400 	mov	w0, #0x20                  	// #32
     47c:	383a6a80 	strb	w0, [x20, x26]
/home/davy/research/pynq-tee/amd-zu3-optee/optee_os/lib/libutils/ext/trace.c:182
     480:	38336a9f 	strb	wzr, [x20, x19]
     484:	17ffffce 	b	3bc <trace_vprintf+0x12c>
/home/davy/research/pynq-tee/amd-zu3-optee/optee_os/lib/libutils/ext/trace.c:194
     488:	d1000673 	sub	x19, x19, #0x1
     48c:	17ffffde 	b	404 <trace_vprintf+0x174>
/home/davy/research/pynq-tee/amd-zu3-optee/optee_os/lib/libutils/ext/trace.c:199
     490:	a9537bfd 	ldp	x29, x30, [sp, #304]
     494:	a95453f3 	ldp	x19, x20, [sp, #320]
     498:	a9555bf5 	ldp	x21, x22, [sp, #336]
     49c:	a95663f7 	ldp	x23, x24, [sp, #352]
     4a0:	a9576bf9 	ldp	x25, x26, [sp, #368]
     4a4:	a95873fb 	ldp	x27, x28, [sp, #384]
     4a8:	910643ff 	add	sp, sp, #0x190
     4ac:	d65f03c0 	ret

00000000000004b0 <trace_printf>:
trace_printf():
/home/davy/research/pynq-tee/amd-zu3-optee/optee_os/lib/libutils/ext/trace.c:120
     4b0:	d104c3ff 	sub	sp, sp, #0x130
     4b4:	a9057bfd 	stp	x29, x30, [sp, #80]
     4b8:	910143fd 	add	x29, sp, #0x50
     4bc:	a90653f3 	stp	x19, x20, [sp, #96]
     4c0:	d0000093 	adrp	x19, 12000 <_DYNAMIC>
     4c4:	aa0003f4 	mov	x20, x0
     4c8:	f9409a60 	ldr	x0, [x19, #304]
     4cc:	a9075bf5 	stp	x21, x22, [sp, #112]
     4d0:	2a0103f5 	mov	w21, w1
     4d4:	a90863f7 	stp	x23, x24, [sp, #128]
     4d8:	2a0203f6 	mov	w22, w2
     4dc:	12001c78 	and	w24, w3, #0xff
     4e0:	a9119be5 	stp	x5, x6, [sp, #280]
     4e4:	aa0403f7 	mov	x23, x4
/home/davy/research/pynq-tee/amd-zu3-optee/optee_os/lib/libutils/ext/trace.c:124
     4e8:	d2800402 	mov	x2, #0x20                  	// #32
/home/davy/research/pynq-tee/amd-zu3-optee/optee_os/lib/libutils/ext/trace.c:120
     4ec:	f90097e7 	str	x7, [sp, #296]
     4f0:	ad0487e0 	stp	q0, q1, [sp, #144]
     4f4:	ad058fe2 	stp	q2, q3, [sp, #176]
     4f8:	ad0697e4 	stp	q4, q5, [sp, #208]
     4fc:	ad079fe6 	stp	q6, q7, [sp, #240]
     500:	f9400001 	ldr	x1, [x0]
     504:	f90027e1 	str	x1, [sp, #72]
     508:	d2800001 	mov	x1, #0x0                   	// #0
/home/davy/research/pynq-tee/amd-zu3-optee/optee_os/lib/libutils/ext/trace.c:123
     50c:	9104c3e0 	add	x0, sp, #0x130
     510:	a90283e0 	stp	x0, x0, [sp, #40]
     514:	910443e0 	add	x0, sp, #0x110
/home/davy/research/pynq-tee/amd-zu3-optee/optee_os/lib/libutils/ext/trace.c:124
     518:	9100a3e1 	add	x1, sp, #0x28
/home/davy/research/pynq-tee/amd-zu3-optee/optee_os/lib/libutils/ext/trace.c:123
     51c:	f9001fe0 	str	x0, [sp, #56]
     520:	128002e0 	mov	w0, #0xffffffe8            	// #-24
     524:	b90043e0 	str	w0, [sp, #64]
     528:	12800fe0 	mov	w0, #0xffffff80            	// #-128
     52c:	b90047e0 	str	w0, [sp, #68]
/home/davy/research/pynq-tee/amd-zu3-optee/optee_os/lib/libutils/ext/trace.c:124
     530:	910003e0 	mov	x0, sp
     534:	97fffeb3 	bl	0 <memcpy>
     538:	aa0003e5 	mov	x5, x0
     53c:	2a1503e1 	mov	w1, w21
     540:	aa1403e0 	mov	x0, x20
     544:	aa1703e4 	mov	x4, x23
     548:	2a1803e3 	mov	w3, w24
     54c:	2a1603e2 	mov	w2, w22
     550:	97ffff50 	bl	290 <trace_vprintf>
/home/davy/research/pynq-tee/amd-zu3-optee/optee_os/lib/libutils/ext/trace.c:126
     554:	f9409a73 	ldr	x19, [x19, #304]
     558:	f94027e0 	ldr	x0, [sp, #72]
     55c:	f9400261 	ldr	x1, [x19]
     560:	eb010000 	subs	x0, x0, x1
     564:	d2800001 	mov	x1, #0x0                   	// #0
     568:	54000040 	b.eq	570 <trace_printf+0xc0>  // b.none
     56c:	97ffff32 	bl	234 <__stack_chk_fail>
     570:	a9457bfd 	ldp	x29, x30, [sp, #80]
     574:	a94653f3 	ldp	x19, x20, [sp, #96]
     578:	a9475bf5 	ldp	x21, x22, [sp, #112]
     57c:	a94863f7 	ldp	x23, x24, [sp, #128]
     580:	9104c3ff 	add	sp, sp, #0x130
     584:	d65f03c0 	ret

0000000000000588 <dhex_dump>:
dhex_dump():
/home/davy/research/pynq-tee/amd-zu3-optee/optee_os/lib/libutils/ext/trace.c:309
     588:	d65f03c0 	ret

000000000000058c <__vsnprintf>:
__vsnprintf():
/home/davy/research/pynq-tee/amd-zu3-optee/optee_os/lib/libutils/ext/snprintk.c:138
     58c:	d101c3ff 	sub	sp, sp, #0x70
     590:	d0000085 	adrp	x5, 12000 <_DYNAMIC>
     594:	a9037bfd 	stp	x29, x30, [sp, #48]
     598:	9100c3fd 	add	x29, sp, #0x30
     59c:	f94098a5 	ldr	x5, [x5, #304]
     5a0:	a90453f3 	stp	x19, x20, [sp, #64]
     5a4:	aa0103f4 	mov	x20, x1
     5a8:	a9055bf5 	stp	x21, x22, [sp, #80]
     5ac:	aa0003f3 	mov	x19, x0
/home/davy/research/pynq-tee/amd-zu3-optee/optee_os/lib/libutils/ext/snprintk.c:142
     5b0:	8b140016 	add	x22, x0, x20
/home/davy/research/pynq-tee/amd-zu3-optee/optee_os/lib/libutils/ext/snprintk.c:138
     5b4:	f90033f7 	str	x23, [sp, #96]
     5b8:	aa0303e1 	mov	x1, x3
     5bc:	aa0203f5 	mov	x21, x2
     5c0:	12001c97 	and	w23, w4, #0xff
     5c4:	f94000a0 	ldr	x0, [x5]
     5c8:	f90017e0 	str	x0, [sp, #40]
     5cc:	d2800000 	mov	x0, #0x0                   	// #0
/home/davy/research/pynq-tee/amd-zu3-optee/optee_os/lib/libutils/ext/snprintk.c:143
     5d0:	d2800402 	mov	x2, #0x20                  	// #32
     5d4:	910003e0 	mov	x0, sp
/home/davy/research/pynq-tee/amd-zu3-optee/optee_os/lib/libutils/ext/snprintk.c:142
     5d8:	f90013f6 	str	x22, [sp, #32]
/home/davy/research/pynq-tee/amd-zu3-optee/optee_os/lib/libutils/ext/snprintk.c:143
     5dc:	97fffe89 	bl	0 <memcpy>
     5e0:	aa0003e3 	mov	x3, x0
     5e4:	2a1703e4 	mov	w4, w23
     5e8:	aa1303e2 	mov	x2, x19
     5ec:	910083e1 	add	x1, sp, #0x20
     5f0:	aa1503e0 	mov	x0, x21
     5f4:	9400005f 	bl	770 <kprintf.constprop.0>
/home/davy/research/pynq-tee/amd-zu3-optee/optee_os/lib/libutils/ext/snprintk.c:144
     5f8:	f100027f 	cmp	x19, #0x0
     5fc:	fa401a84 	ccmp	x20, #0x0, #0x4, ne	// ne = any
     600:	540000a0 	b.eq	614 <__vsnprintf+0x88>  // b.none
/home/davy/research/pynq-tee/amd-zu3-optee/optee_os/lib/libutils/ext/snprintk.c:146
     604:	93407c01 	sxtw	x1, w0
     608:	eb20c29f 	cmp	x20, w0, sxtw
     60c:	54000148 	b.hi	634 <__vsnprintf+0xa8>  // b.pmore
/home/davy/research/pynq-tee/amd-zu3-optee/optee_os/lib/libutils/ext/snprintk.c:147
     610:	381ff2df 	sturb	wzr, [x22, #-1]
/home/davy/research/pynq-tee/amd-zu3-optee/optee_os/lib/libutils/ext/snprintk.c:152
     614:	d0000085 	adrp	x5, 12000 <_DYNAMIC>
     618:	f94098a5 	ldr	x5, [x5, #304]
     61c:	f94017e1 	ldr	x1, [sp, #40]
     620:	f94000a2 	ldr	x2, [x5]
     624:	eb020021 	subs	x1, x1, x2
     628:	d2800002 	mov	x2, #0x0                   	// #0
     62c:	54000080 	b.eq	63c <__vsnprintf+0xb0>  // b.none
     630:	97ffff01 	bl	234 <__stack_chk_fail>
/home/davy/research/pynq-tee/amd-zu3-optee/optee_os/lib/libutils/ext/snprintk.c:149
     634:	38216a7f 	strb	wzr, [x19, x1]
/home/davy/research/pynq-tee/amd-zu3-optee/optee_os/lib/libutils/ext/snprintk.c:151
     638:	17fffff7 	b	614 <__vsnprintf+0x88>
/home/davy/research/pynq-tee/amd-zu3-optee/optee_os/lib/libutils/ext/snprintk.c:152
     63c:	f94033f7 	ldr	x23, [sp, #96]
     640:	a9437bfd 	ldp	x29, x30, [sp, #48]
     644:	a94453f3 	ldp	x19, x20, [sp, #64]
     648:	a9455bf5 	ldp	x21, x22, [sp, #80]
     64c:	9101c3ff 	add	sp, sp, #0x70
     650:	d65f03c0 	ret

0000000000000654 <vsnprintk>:
vsnprintk():
/home/davy/research/pynq-tee/amd-zu3-optee/optee_os/lib/libutils/ext/snprintk.c:130
     654:	a9bb7bfd 	stp	x29, x30, [sp, #-80]!
/home/davy/research/pynq-tee/amd-zu3-optee/optee_os/lib/libutils/ext/snprintk.c:131
     658:	9100c3e4 	add	x4, sp, #0x30
/home/davy/research/pynq-tee/amd-zu3-optee/optee_os/lib/libutils/ext/snprintk.c:130
     65c:	910003fd 	mov	x29, sp
     660:	a90153f3 	stp	x19, x20, [sp, #16]
     664:	aa0003f3 	mov	x19, x0
     668:	aa0103f4 	mov	x20, x1
/home/davy/research/pynq-tee/amd-zu3-optee/optee_os/lib/libutils/ext/snprintk.c:131
     66c:	aa0403e0 	mov	x0, x4
/home/davy/research/pynq-tee/amd-zu3-optee/optee_os/lib/libutils/ext/snprintk.c:130
     670:	aa0303e1 	mov	x1, x3
     674:	f90013f5 	str	x21, [sp, #32]
     678:	aa0203f5 	mov	x21, x2
/home/davy/research/pynq-tee/amd-zu3-optee/optee_os/lib/libutils/ext/snprintk.c:131
     67c:	d2800402 	mov	x2, #0x20                  	// #32
     680:	97fffe60 	bl	0 <memcpy>
     684:	aa1503e2 	mov	x2, x21
     688:	aa0003e3 	mov	x3, x0
     68c:	aa1403e1 	mov	x1, x20
     690:	aa1303e0 	mov	x0, x19
     694:	52800024 	mov	w4, #0x1                   	// #1
     698:	97ffffbd 	bl	58c <__vsnprintf>
/home/davy/research/pynq-tee/amd-zu3-optee/optee_os/lib/libutils/ext/snprintk.c:132
     69c:	f94013f5 	ldr	x21, [sp, #32]
     6a0:	a94153f3 	ldp	x19, x20, [sp, #16]
     6a4:	a8c57bfd 	ldp	x29, x30, [sp], #80
     6a8:	d65f03c0 	ret

00000000000006ac <snprintk>:
snprintk():
/home/davy/research/pynq-tee/amd-zu3-optee/optee_os/lib/libutils/ext/snprintk.c:113
     6ac:	d104c3ff 	sub	sp, sp, #0x130
     6b0:	a9057bfd 	stp	x29, x30, [sp, #80]
     6b4:	910143fd 	add	x29, sp, #0x50
     6b8:	a90653f3 	stp	x19, x20, [sp, #96]
     6bc:	d0000093 	adrp	x19, 12000 <_DYNAMIC>
     6c0:	aa0003f4 	mov	x20, x0
     6c4:	f9409a60 	ldr	x0, [x19, #304]
     6c8:	a9075bf5 	stp	x21, x22, [sp, #112]
     6cc:	aa0103f5 	mov	x21, x1
     6d0:	a91093e3 	stp	x3, x4, [sp, #264]
     6d4:	aa0203f6 	mov	x22, x2
/home/davy/research/pynq-tee/amd-zu3-optee/optee_os/lib/libutils/ext/snprintk.c:118
     6d8:	d2800402 	mov	x2, #0x20                  	// #32
/home/davy/research/pynq-tee/amd-zu3-optee/optee_os/lib/libutils/ext/snprintk.c:113
     6dc:	a9119be5 	stp	x5, x6, [sp, #280]
     6e0:	f90097e7 	str	x7, [sp, #296]
     6e4:	ad0407e0 	stp	q0, q1, [sp, #128]
     6e8:	ad050fe2 	stp	q2, q3, [sp, #160]
     6ec:	ad0617e4 	stp	q4, q5, [sp, #192]
     6f0:	ad071fe6 	stp	q6, q7, [sp, #224]
     6f4:	f9400001 	ldr	x1, [x0]
     6f8:	f90027e1 	str	x1, [sp, #72]
     6fc:	d2800001 	mov	x1, #0x0                   	// #0
/home/davy/research/pynq-tee/amd-zu3-optee/optee_os/lib/libutils/ext/snprintk.c:117
     700:	9104c3e0 	add	x0, sp, #0x130
     704:	a90283e0 	stp	x0, x0, [sp, #40]
     708:	910403e0 	add	x0, sp, #0x100
/home/davy/research/pynq-tee/amd-zu3-optee/optee_os/lib/libutils/ext/snprintk.c:118
     70c:	9100a3e1 	add	x1, sp, #0x28
/home/davy/research/pynq-tee/amd-zu3-optee/optee_os/lib/libutils/ext/snprintk.c:117
     710:	f9001fe0 	str	x0, [sp, #56]
     714:	128004e0 	mov	w0, #0xffffffd8            	// #-40
     718:	b90043e0 	str	w0, [sp, #64]
     71c:	12800fe0 	mov	w0, #0xffffff80            	// #-128
     720:	b90047e0 	str	w0, [sp, #68]
/home/davy/research/pynq-tee/amd-zu3-optee/optee_os/lib/libutils/ext/snprintk.c:118
     724:	910003e0 	mov	x0, sp
     728:	97fffe36 	bl	0 <memcpy>
     72c:	aa0003e3 	mov	x3, x0
     730:	aa1603e2 	mov	x2, x22
     734:	aa1503e1 	mov	x1, x21
     738:	aa1403e0 	mov	x0, x20
     73c:	97ffffc6 	bl	654 <vsnprintk>
/home/davy/research/pynq-tee/amd-zu3-optee/optee_os/lib/libutils/ext/snprintk.c:122
     740:	f9409a73 	ldr	x19, [x19, #304]
     744:	f94027e1 	ldr	x1, [sp, #72]
     748:	f9400262 	ldr	x2, [x19]
     74c:	eb020021 	subs	x1, x1, x2
     750:	d2800002 	mov	x2, #0x0                   	// #0
     754:	54000040 	b.eq	75c <snprintk+0xb0>  // b.none
     758:	97fffeb7 	bl	234 <__stack_chk_fail>
     75c:	a9457bfd 	ldp	x29, x30, [sp, #80]
     760:	a94653f3 	ldp	x19, x20, [sp, #96]
     764:	a9475bf5 	ldp	x21, x22, [sp, #112]
     768:	9104c3ff 	add	sp, sp, #0x130
     76c:	d65f03c0 	ret

0000000000000770 <kprintf.constprop.0>:
kprintf():
/home/davy/research/pynq-tee/amd-zu3-optee/optee_os/lib/libutils/ext/snprintk.c:242
     770:	d103c3ff 	sub	sp, sp, #0xf0
     774:	aa0103ed 	mov	x13, x1
     778:	a9097bfd 	stp	x29, x30, [sp, #144]
     77c:	910243fd 	add	x29, sp, #0x90
     780:	a90e73fb 	stp	x27, x28, [sp, #224]
     784:	aa0003fc 	mov	x28, x0
     788:	12001c80 	and	w0, w4, #0xff
     78c:	b9003be0 	str	w0, [sp, #56]
     790:	d0000080 	adrp	x0, 12000 <_DYNAMIC>
     794:	a90a53f3 	stp	x19, x20, [sp, #160]
     798:	aa0203f4 	mov	x20, x2
     79c:	f9409800 	ldr	x0, [x0, #304]
     7a0:	a90b5bf5 	stp	x21, x22, [sp, #176]
     7a4:	a90c63f7 	stp	x23, x24, [sp, #192]
     7a8:	a90d6bf9 	stp	x25, x26, [sp, #208]
     7ac:	f9400001 	ldr	x1, [x0]
     7b0:	f90047e1 	str	x1, [sp, #136]
     7b4:	d2800001 	mov	x1, #0x0                   	// #0
     7b8:	a9406c64 	ldp	x4, x27, [x3]
     7bc:	b9401863 	ldr	w3, [x3, #24]
/home/davy/research/pynq-tee/amd-zu3-optee/optee_os/lib/libutils/ext/snprintk.c:264
     7c0:	b400046d 	cbz	x13, 84c <kprintf.constprop.0+0xdc>
/home/davy/research/pynq-tee/amd-zu3-optee/optee_os/lib/libutils/ext/snprintk.c:265
     7c4:	f94001b8 	ldr	x24, [x13]
/home/davy/research/pynq-tee/amd-zu3-optee/optee_os/lib/libutils/ext/snprintk.c:591 (discriminator 2)
     7c8:	f10001bf 	cmp	x13, #0x0
     7cc:	1a9f17f7 	cset	w23, eq	// eq = none
/home/davy/research/pynq-tee/amd-zu3-optee/optee_os/lib/libutils/ext/snprintk.c:297
     7d0:	f0000060 	adrp	x0, f000 <__text_end+0x2084>
/home/davy/research/pynq-tee/amd-zu3-optee/optee_os/lib/libutils/ext/snprintk.c:275
     7d4:	d2800015 	mov	x21, #0x0                   	// #0
/home/davy/research/pynq-tee/amd-zu3-optee/optee_os/lib/libutils/ext/snprintk.c:297
     7d8:	91376000 	add	x0, x0, #0xdd8
/home/davy/research/pynq-tee/amd-zu3-optee/optee_os/lib/libutils/ext/snprintk.c:273
     7dc:	52800019 	mov	w25, #0x0                   	// #0
/home/davy/research/pynq-tee/amd-zu3-optee/optee_os/lib/libutils/ext/snprintk.c:297
     7e0:	f90023e0 	str	x0, [sp, #64]
/home/davy/research/pynq-tee/amd-zu3-optee/optee_os/lib/libutils/ext/snprintk.c:281 (discriminator 1)
     7e4:	39400380 	ldrb	w0, [x28]
     7e8:	7100941f 	cmp	w0, #0x25
     7ec:	7a401804 	ccmp	w0, #0x0, #0x4, ne	// ne = any
     7f0:	54000321 	b.ne	854 <kprintf.constprop.0+0xe4>  // b.any
/home/davy/research/pynq-tee/amd-zu3-optee/optee_os/lib/libutils/ext/snprintk.c:285
     7f4:	34000180 	cbz	w0, 824 <kprintf.constprop.0+0xb4>
/home/davy/research/pynq-tee/amd-zu3-optee/optee_os/lib/libutils/ext/snprintk.c:288
     7f8:	9100079c 	add	x28, x28, #0x1
/home/davy/research/pynq-tee/amd-zu3-optee/optee_os/lib/libutils/ext/snprintk.c:294
     7fc:	52800001 	mov	w1, #0x0                   	// #0
/home/davy/research/pynq-tee/amd-zu3-optee/optee_os/lib/libutils/ext/snprintk.c:293
     800:	12800005 	mov	w5, #0xffffffff            	// #-1
/home/davy/research/pynq-tee/amd-zu3-optee/optee_os/lib/libutils/ext/snprintk.c:292
     804:	5280000a 	mov	w10, #0x0                   	// #0
/home/davy/research/pynq-tee/amd-zu3-optee/optee_os/lib/libutils/ext/snprintk.c:290
     808:	52800013 	mov	w19, #0x0                   	// #0
/home/davy/research/pynq-tee/amd-zu3-optee/optee_os/lib/libutils/ext/snprintk.c:296
     80c:	38401788 	ldrb	w8, [x28], #1
/home/davy/research/pynq-tee/amd-zu3-optee/optee_os/lib/libutils/ext/snprintk.c:297
     810:	7100e51f 	cmp	w8, #0x39
     814:	5400070c 	b.gt	8f4 <kprintf.constprop.0+0x184>
     818:	71007d1f 	cmp	w8, #0x1f
     81c:	540005ac 	b.gt	8d0 <kprintf.constprop.0+0x160>
/home/davy/research/pynq-tee/amd-zu3-optee/optee_os/lib/libutils/ext/snprintk.c:547
     820:	35000708 	cbnz	w8, 900 <kprintf.constprop.0+0x190>
/home/davy/research/pynq-tee/amd-zu3-optee/optee_os/lib/libutils/ext/snprintk.c:619
     824:	b400004d 	cbz	x13, 82c <kprintf.constprop.0+0xbc>
/home/davy/research/pynq-tee/amd-zu3-optee/optee_os/lib/libutils/ext/snprintk.c:620
     828:	f90001b4 	str	x20, [x13]
/home/davy/research/pynq-tee/amd-zu3-optee/optee_os/lib/libutils/ext/snprintk.c:622
     82c:	d0000080 	adrp	x0, 12000 <_DYNAMIC>
     830:	f9409800 	ldr	x0, [x0, #304]
     834:	f94047e2 	ldr	x2, [sp, #136]
     838:	f9400001 	ldr	x1, [x0]
     83c:	eb010042 	subs	x2, x2, x1
     840:	d2800001 	mov	x1, #0x0                   	// #0
     844:	54005880 	b.eq	1354 <kprintf.constprop.0+0xbe4>  // b.none
     848:	97fffe7b 	bl	234 <__stack_chk_fail>
/home/davy/research/pynq-tee/amd-zu3-optee/optee_os/lib/libutils/ext/snprintk.c:267
     84c:	d2800018 	mov	x24, #0x0                   	// #0
     850:	17ffffde 	b	7c8 <kprintf.constprop.0+0x58>
/home/davy/research/pynq-tee/amd-zu3-optee/optee_os/lib/libutils/ext/snprintk.c:282
     854:	11000739 	add	w25, w25, #0x1
/home/davy/research/pynq-tee/amd-zu3-optee/optee_os/lib/libutils/ext/snprintk.c:283 (discriminator 1)
     858:	b40000b4 	cbz	x20, 86c <kprintf.constprop.0+0xfc>
/home/davy/research/pynq-tee/amd-zu3-optee/optee_os/lib/libutils/ext/snprintk.c:283 (discriminator 2)
     85c:	710002ff 	cmp	w23, #0x0
     860:	fa580280 	ccmp	x20, x24, #0x0, eq	// eq = none
     864:	54000042 	b.cs	86c <kprintf.constprop.0+0xfc>  // b.hs, b.nlast
/home/davy/research/pynq-tee/amd-zu3-optee/optee_os/lib/libutils/ext/snprintk.c:283 (discriminator 3)
     868:	38001680 	strb	w0, [x20], #1
/home/davy/research/pynq-tee/amd-zu3-optee/optee_os/lib/libutils/ext/snprintk.c:281
     86c:	9100079c 	add	x28, x28, #0x1
     870:	17ffffdd 	b	7e4 <kprintf.constprop.0+0x74>
/home/davy/research/pynq-tee/amd-zu3-optee/optee_os/lib/libutils/ext/snprintk.c:297
     874:	52800561 	mov	w1, #0x2b                  	// #43
     878:	17ffffe5 	b	80c <kprintf.constprop.0+0x9c>
     87c:	f94023e2 	ldr	x2, [sp, #64]
     880:	78605840 	ldrh	w0, [x2, w0, uxtw #1]
     884:	10000062 	adr	x2, 890 <kprintf.constprop.0+0x120>
     888:	8b20a840 	add	x0, x2, w0, sxth #2
     88c:	d61f0000 	br	x0
/home/davy/research/pynq-tee/amd-zu3-optee/optee_os/lib/libutils/ext/snprintk.c:480
     890:	f0000075 	adrp	x21, f000 <__text_end+0x2084>
     894:	91398ab5 	add	x21, x21, #0xe62
/home/davy/research/pynq-tee/amd-zu3-optee/optee_os/lib/libutils/ext/snprintk.c:481
     898:	363847b3 	tbz	w19, #7, 118c <kprintf.constprop.0+0xa1c>
/home/davy/research/pynq-tee/amd-zu3-optee/optee_os/lib/libutils/ext/snprintk.c:481 (discriminator 13)
     89c:	37f848e3 	tbnz	w3, #31, 11b8 <kprintf.constprop.0+0xa48>
     8a0:	91003c80 	add	x0, x4, #0xf
     8a4:	2a0303e1 	mov	w1, w3
     8a8:	927df000 	and	x0, x0, #0xfffffffffffffff8
     8ac:	f9400082 	ldr	x2, [x4]
/home/davy/research/pynq-tee/amd-zu3-optee/optee_os/lib/libutils/ext/snprintk.c:481 (discriminator 1)
     8b0:	2a0103e3 	mov	w3, w1
     8b4:	aa0003e4 	mov	x4, x0
/home/davy/research/pynq-tee/amd-zu3-optee/optee_os/lib/libutils/ext/snprintk.c:484
     8b8:	36003733 	tbz	w19, #0, f9c <kprintf.constprop.0+0x82c>
/home/davy/research/pynq-tee/amd-zu3-optee/optee_os/lib/libutils/ext/snprintk.c:484 (discriminator 1)
     8bc:	b4003702 	cbz	x2, f9c <kprintf.constprop.0+0x82c>
/home/davy/research/pynq-tee/amd-zu3-optee/optee_os/lib/libutils/ext/snprintk.c:485
     8c0:	321f0273 	orr	w19, w19, #0x2
/home/davy/research/pynq-tee/amd-zu3-optee/optee_os/lib/libutils/ext/snprintk.c:482
     8c4:	52800040 	mov	w0, #0x2                   	// #2
/home/davy/research/pynq-tee/amd-zu3-optee/optee_os/lib/libutils/ext/snprintk.c:488
     8c8:	52800001 	mov	w1, #0x0                   	// #0
     8cc:	14000089 	b	af0 <kprintf.constprop.0+0x380>
/home/davy/research/pynq-tee/amd-zu3-optee/optee_os/lib/libutils/ext/snprintk.c:297
     8d0:	51008102 	sub	w2, w8, #0x20
     8d4:	7100645f 	cmp	w2, #0x19
     8d8:	54fffa48 	b.hi	820 <kprintf.constprop.0+0xb0>  // b.pmore
     8dc:	f0000060 	adrp	x0, f000 <__text_end+0x2084>
     8e0:	91392000 	add	x0, x0, #0xe48
     8e4:	38624800 	ldrb	w0, [x0, w2, uxtw]
     8e8:	10000062 	adr	x2, 8f4 <kprintf.constprop.0+0x184>
     8ec:	8b208840 	add	x0, x2, w0, sxtb #2
     8f0:	d61f0000 	br	x0
     8f4:	51011100 	sub	w0, w8, #0x44
     8f8:	7100d81f 	cmp	w0, #0x36
     8fc:	54fffc09 	b.ls	87c <kprintf.constprop.0+0x10c>  // b.plast
/home/davy/research/pynq-tee/amd-zu3-optee/optee_os/lib/libutils/ext/snprintk.c:551
     900:	390183e8 	strb	w8, [sp, #96]
     904:	1400005f 	b	a80 <kprintf.constprop.0+0x310>
/home/davy/research/pynq-tee/amd-zu3-optee/optee_os/lib/libutils/ext/snprintk.c:305
     908:	7100003f 	cmp	w1, #0x0
     90c:	52800400 	mov	w0, #0x20                  	// #32
     910:	1a801021 	csel	w1, w1, w0, ne	// ne = any
     914:	17ffffbe 	b	80c <kprintf.constprop.0+0x9c>
/home/davy/research/pynq-tee/amd-zu3-optee/optee_os/lib/libutils/ext/snprintk.c:308
     918:	32000273 	orr	w19, w19, #0x1
/home/davy/research/pynq-tee/amd-zu3-optee/optee_os/lib/libutils/ext/snprintk.c:309
     91c:	17ffffbc 	b	80c <kprintf.constprop.0+0x9c>
/home/davy/research/pynq-tee/amd-zu3-optee/optee_os/lib/libutils/ext/snprintk.c:317
     920:	37f80123 	tbnz	w3, #31, 944 <kprintf.constprop.0+0x1d4>
     924:	91002c82 	add	x2, x4, #0xb
     928:	aa0403e0 	mov	x0, x4
     92c:	927df044 	and	x4, x2, #0xfffffffffffffff8
     930:	b940000a 	ldr	w10, [x0]
/home/davy/research/pynq-tee/amd-zu3-optee/optee_os/lib/libutils/ext/snprintk.c:317 (discriminator 1)
     934:	36fff6ca 	tbz	w10, #31, 80c <kprintf.constprop.0+0x9c>
/home/davy/research/pynq-tee/amd-zu3-optee/optee_os/lib/libutils/ext/snprintk.c:319
     938:	4b0a03ea 	neg	w10, w10
/home/davy/research/pynq-tee/amd-zu3-optee/optee_os/lib/libutils/ext/snprintk.c:322
     93c:	321e0273 	orr	w19, w19, #0x4
/home/davy/research/pynq-tee/amd-zu3-optee/optee_os/lib/libutils/ext/snprintk.c:323
     940:	17ffffb3 	b	80c <kprintf.constprop.0+0x9c>
/home/davy/research/pynq-tee/amd-zu3-optee/optee_os/lib/libutils/ext/snprintk.c:317
     944:	11002062 	add	w2, w3, #0x8
     948:	7100005f 	cmp	w2, #0x0
     94c:	540000cd 	b.le	964 <kprintf.constprop.0+0x1f4>
     950:	91002c86 	add	x6, x4, #0xb
     954:	aa0403e0 	mov	x0, x4
     958:	2a0203e3 	mov	w3, w2
     95c:	927df0c4 	and	x4, x6, #0xfffffffffffffff8
     960:	17fffff4 	b	930 <kprintf.constprop.0+0x1c0>
     964:	8b23c360 	add	x0, x27, w3, sxtw
     968:	2a0203e3 	mov	w3, w2
     96c:	17fffff1 	b	930 <kprintf.constprop.0+0x1c0>
/home/davy/research/pynq-tee/amd-zu3-optee/optee_os/lib/libutils/ext/snprintk.c:328
     970:	38401788 	ldrb	w8, [x28], #1
     974:	7100a91f 	cmp	w8, #0x2a
     978:	54000381 	b.ne	9e8 <kprintf.constprop.0+0x278>  // b.any
/home/davy/research/pynq-tee/amd-zu3-optee/optee_os/lib/libutils/ext/snprintk.c:329
     97c:	37f80143 	tbnz	w3, #31, 9a4 <kprintf.constprop.0+0x234>
     980:	91002c80 	add	x0, x4, #0xb
     984:	2a0303e2 	mov	w2, w3
     988:	927df000 	and	x0, x0, #0xfffffffffffffff8
/home/davy/research/pynq-tee/amd-zu3-optee/optee_os/lib/libutils/ext/snprintk.c:330
     98c:	b9400085 	ldr	w5, [x4]
/home/davy/research/pynq-tee/amd-zu3-optee/optee_os/lib/libutils/ext/snprintk.c:331
     990:	2a0203e3 	mov	w3, w2
     994:	aa0003e4 	mov	x4, x0
/home/davy/research/pynq-tee/amd-zu3-optee/optee_os/lib/libutils/ext/snprintk.c:330
     998:	710000bf 	cmp	w5, #0x0
     99c:	5a9fa0a5 	csinv	w5, w5, wzr, ge	// ge = tcont
/home/davy/research/pynq-tee/amd-zu3-optee/optee_os/lib/libutils/ext/snprintk.c:331
     9a0:	17ffff9b 	b	80c <kprintf.constprop.0+0x9c>
/home/davy/research/pynq-tee/amd-zu3-optee/optee_os/lib/libutils/ext/snprintk.c:329
     9a4:	11002062 	add	w2, w3, #0x8
     9a8:	7100005f 	cmp	w2, #0x0
     9ac:	5400008d 	b.le	9bc <kprintf.constprop.0+0x24c>
     9b0:	91002c80 	add	x0, x4, #0xb
     9b4:	927df000 	and	x0, x0, #0xfffffffffffffff8
     9b8:	17fffff5 	b	98c <kprintf.constprop.0+0x21c>
     9bc:	aa0403e0 	mov	x0, x4
     9c0:	8b23c364 	add	x4, x27, w3, sxtw
     9c4:	17fffff2 	b	98c <kprintf.constprop.0+0x21c>
/home/davy/research/pynq-tee/amd-zu3-optee/optee_os/lib/libutils/ext/snprintk.c:335
     9c8:	1b0200a5 	madd	w5, w5, w2, w0
/home/davy/research/pynq-tee/amd-zu3-optee/optee_os/lib/libutils/ext/snprintk.c:336
     9cc:	38401788 	ldrb	w8, [x28], #1
/home/davy/research/pynq-tee/amd-zu3-optee/optee_os/lib/libutils/ext/snprintk.c:334
     9d0:	5100c100 	sub	w0, w8, #0x30
     9d4:	7100241f 	cmp	w0, #0x9
     9d8:	54ffff89 	b.ls	9c8 <kprintf.constprop.0+0x258>  // b.plast
/home/davy/research/pynq-tee/amd-zu3-optee/optee_os/lib/libutils/ext/snprintk.c:338
     9dc:	710000bf 	cmp	w5, #0x0
     9e0:	5a9fa0a5 	csinv	w5, w5, wzr, ge	// ge = tcont
/home/davy/research/pynq-tee/amd-zu3-optee/optee_os/lib/libutils/ext/snprintk.c:339
     9e4:	17ffff8b 	b	810 <kprintf.constprop.0+0xa0>
/home/davy/research/pynq-tee/amd-zu3-optee/optee_os/lib/libutils/ext/snprintk.c:333
     9e8:	52800005 	mov	w5, #0x0                   	// #0
/home/davy/research/pynq-tee/amd-zu3-optee/optee_os/lib/libutils/ext/snprintk.c:335
     9ec:	52800142 	mov	w2, #0xa                   	// #10
     9f0:	17fffff8 	b	9d0 <kprintf.constprop.0+0x260>
/home/davy/research/pynq-tee/amd-zu3-optee/optee_os/lib/libutils/ext/snprintk.c:346
     9f4:	32160273 	orr	w19, w19, #0x400
/home/davy/research/pynq-tee/amd-zu3-optee/optee_os/lib/libutils/ext/snprintk.c:347
     9f8:	17ffff85 	b	80c <kprintf.constprop.0+0x9c>
/home/davy/research/pynq-tee/amd-zu3-optee/optee_os/lib/libutils/ext/snprintk.c:297
     9fc:	5280000a 	mov	w10, #0x0                   	// #0
/home/davy/research/pynq-tee/amd-zu3-optee/optee_os/lib/libutils/ext/snprintk.c:352
     a00:	52800142 	mov	w2, #0xa                   	// #10
     a04:	5100c108 	sub	w8, w8, #0x30
     a08:	1b02214a 	madd	w10, w10, w2, w8
/home/davy/research/pynq-tee/amd-zu3-optee/optee_os/lib/libutils/ext/snprintk.c:353
     a0c:	38401788 	ldrb	w8, [x28], #1
/home/davy/research/pynq-tee/amd-zu3-optee/optee_os/lib/libutils/ext/snprintk.c:354 (discriminator 1)
     a10:	5100c100 	sub	w0, w8, #0x30
     a14:	7100241f 	cmp	w0, #0x9
     a18:	54ffff69 	b.ls	a04 <kprintf.constprop.0+0x294>  // b.plast
     a1c:	17ffff7d 	b	810 <kprintf.constprop.0+0xa0>
/home/davy/research/pynq-tee/amd-zu3-optee/optee_os/lib/libutils/ext/snprintk.c:358
     a20:	321a0273 	orr	w19, w19, #0x40
/home/davy/research/pynq-tee/amd-zu3-optee/optee_os/lib/libutils/ext/snprintk.c:359
     a24:	17ffff7a 	b	80c <kprintf.constprop.0+0x9c>
/home/davy/research/pynq-tee/amd-zu3-optee/optee_os/lib/libutils/ext/snprintk.c:361
     a28:	32190273 	orr	w19, w19, #0x80
/home/davy/research/pynq-tee/amd-zu3-optee/optee_os/lib/libutils/ext/snprintk.c:362
     a2c:	17ffff78 	b	80c <kprintf.constprop.0+0x9c>
/home/davy/research/pynq-tee/amd-zu3-optee/optee_os/lib/libutils/ext/snprintk.c:364
     a30:	39400380 	ldrb	w0, [x28]
     a34:	7101b01f 	cmp	w0, #0x6c
     a38:	54000081 	b.ne	a48 <kprintf.constprop.0+0x2d8>  // b.any
/home/davy/research/pynq-tee/amd-zu3-optee/optee_os/lib/libutils/ext/snprintk.c:328
     a3c:	9100079c 	add	x28, x28, #0x1
/home/davy/research/pynq-tee/amd-zu3-optee/optee_os/lib/libutils/ext/snprintk.c:372
     a40:	321b0273 	orr	w19, w19, #0x20
/home/davy/research/pynq-tee/amd-zu3-optee/optee_os/lib/libutils/ext/snprintk.c:373
     a44:	17ffff72 	b	80c <kprintf.constprop.0+0x9c>
/home/davy/research/pynq-tee/amd-zu3-optee/optee_os/lib/libutils/ext/snprintk.c:368
     a48:	321c0273 	orr	w19, w19, #0x10
     a4c:	17ffff70 	b	80c <kprintf.constprop.0+0x9c>
/home/davy/research/pynq-tee/amd-zu3-optee/optee_os/lib/libutils/ext/snprintk.c:375
     a50:	32180273 	orr	w19, w19, #0x100
/home/davy/research/pynq-tee/amd-zu3-optee/optee_os/lib/libutils/ext/snprintk.c:376
     a54:	17ffff6e 	b	80c <kprintf.constprop.0+0x9c>
/home/davy/research/pynq-tee/amd-zu3-optee/optee_os/lib/libutils/ext/snprintk.c:378
     a58:	32170273 	orr	w19, w19, #0x200
/home/davy/research/pynq-tee/amd-zu3-optee/optee_os/lib/libutils/ext/snprintk.c:379
     a5c:	17ffff6c 	b	80c <kprintf.constprop.0+0x9c>
/home/davy/research/pynq-tee/amd-zu3-optee/optee_os/lib/libutils/ext/snprintk.c:381
     a60:	37f801c3 	tbnz	w3, #31, a98 <kprintf.constprop.0+0x328>
     a64:	91002c80 	add	x0, x4, #0xb
     a68:	2a0303e1 	mov	w1, w3
     a6c:	927df000 	and	x0, x0, #0xfffffffffffffff8
/home/davy/research/pynq-tee/amd-zu3-optee/optee_os/lib/libutils/ext/snprintk.c:381 (discriminator 1)
     a70:	b9400082 	ldr	w2, [x4]
     a74:	2a0103e3 	mov	w3, w1
     a78:	aa0003e4 	mov	x4, x0
     a7c:	390183e2 	strb	w2, [sp, #96]
/home/davy/research/pynq-tee/amd-zu3-optee/optee_os/lib/libutils/ext/snprintk.c:552
     a80:	52800020 	mov	w0, #0x1                   	// #1
/home/davy/research/pynq-tee/amd-zu3-optee/optee_os/lib/libutils/ext/snprintk.c:550
     a84:	910183f6 	add	x22, sp, #0x60
/home/davy/research/pynq-tee/amd-zu3-optee/optee_os/lib/libutils/ext/snprintk.c:571
     a88:	2a0003e2 	mov	w2, w0
/home/davy/research/pynq-tee/amd-zu3-optee/optee_os/lib/libutils/ext/snprintk.c:291
     a8c:	52800005 	mov	w5, #0x0                   	// #0
/home/davy/research/pynq-tee/amd-zu3-optee/optee_os/lib/libutils/ext/snprintk.c:551
     a90:	52800001 	mov	w1, #0x0                   	// #0
     a94:	14000105 	b	ea8 <kprintf.constprop.0+0x738>
/home/davy/research/pynq-tee/amd-zu3-optee/optee_os/lib/libutils/ext/snprintk.c:381
     a98:	11002061 	add	w1, w3, #0x8
     a9c:	7100003f 	cmp	w1, #0x0
     aa0:	5400008d 	b.le	ab0 <kprintf.constprop.0+0x340>
     aa4:	91002c80 	add	x0, x4, #0xb
     aa8:	927df000 	and	x0, x0, #0xfffffffffffffff8
     aac:	17fffff1 	b	a70 <kprintf.constprop.0+0x300>
     ab0:	aa0403e0 	mov	x0, x4
     ab4:	8b23c364 	add	x4, x27, w3, sxtw
     ab8:	17ffffee 	b	a70 <kprintf.constprop.0+0x300>
/home/davy/research/pynq-tee/amd-zu3-optee/optee_os/lib/libutils/ext/snprintk.c:386
     abc:	321c0273 	orr	w19, w19, #0x10
/home/davy/research/pynq-tee/amd-zu3-optee/optee_os/lib/libutils/ext/snprintk.c:390
     ac0:	36380313 	tbz	w19, #7, b20 <kprintf.constprop.0+0x3b0>
/home/davy/research/pynq-tee/amd-zu3-optee/optee_os/lib/libutils/ext/snprintk.c:390 (discriminator 13)
     ac4:	37f80443 	tbnz	w3, #31, b4c <kprintf.constprop.0+0x3dc>
     ac8:	91003c80 	add	x0, x4, #0xf
     acc:	2a0303e6 	mov	w6, w3
     ad0:	927df000 	and	x0, x0, #0xfffffffffffffff8
/home/davy/research/pynq-tee/amd-zu3-optee/optee_os/lib/libutils/ext/snprintk.c:390 (discriminator 1)
     ad4:	f9400082 	ldr	x2, [x4]
     ad8:	2a0603e3 	mov	w3, w6
     adc:	aa0003e4 	mov	x4, x0
/home/davy/research/pynq-tee/amd-zu3-optee/optee_os/lib/libutils/ext/snprintk.c:391
     ae0:	b6f82ee2 	tbz	x2, #63, 10bc <kprintf.constprop.0+0x94c>
/home/davy/research/pynq-tee/amd-zu3-optee/optee_os/lib/libutils/ext/snprintk.c:392
     ae4:	cb0203e2 	neg	x2, x2
/home/davy/research/pynq-tee/amd-zu3-optee/optee_os/lib/libutils/ext/snprintk.c:395
     ae8:	52800020 	mov	w0, #0x1                   	// #1
/home/davy/research/pynq-tee/amd-zu3-optee/optee_os/lib/libutils/ext/snprintk.c:393
     aec:	528005a1 	mov	w1, #0x2d                  	// #45
/home/davy/research/pynq-tee/amd-zu3-optee/optee_os/lib/libutils/ext/snprintk.c:494
     af0:	36f83a85 	tbz	w5, #31, 1240 <kprintf.constprop.0+0xad0>
/home/davy/research/pynq-tee/amd-zu3-optee/optee_os/lib/libutils/ext/snprintk.c:509
     af4:	7100041f 	cmp	w0, #0x1
     af8:	54002e40 	b.eq	10c0 <kprintf.constprop.0+0x950>  // b.none
     afc:	7100081f 	cmp	w0, #0x2
     b00:	54000f01 	b.ne	ce0 <kprintf.constprop.0+0x570>  // b.any
/home/davy/research/pynq-tee/amd-zu3-optee/optee_os/lib/libutils/ext/snprintk.c:494
     b04:	910217f6 	add	x22, sp, #0x85
/home/davy/research/pynq-tee/amd-zu3-optee/optee_os/lib/libutils/ext/snprintk.c:531
     b08:	92400c40 	and	x0, x2, #0xf
/home/davy/research/pynq-tee/amd-zu3-optee/optee_os/lib/libutils/ext/snprintk.c:532
     b0c:	d344fc42 	lsr	x2, x2, #4
/home/davy/research/pynq-tee/amd-zu3-optee/optee_os/lib/libutils/ext/snprintk.c:531
     b10:	38606aa0 	ldrb	w0, [x21, x0]
     b14:	381ffec0 	strb	w0, [x22, #-1]!
/home/davy/research/pynq-tee/amd-zu3-optee/optee_os/lib/libutils/ext/snprintk.c:533 (discriminator 1)
     b18:	b5ffff82 	cbnz	x2, b08 <kprintf.constprop.0+0x398>
     b1c:	1400007e 	b	d14 <kprintf.constprop.0+0x5a4>
/home/davy/research/pynq-tee/amd-zu3-optee/optee_os/lib/libutils/ext/snprintk.c:390 (discriminator 2)
     b20:	3747fd33 	tbnz	w19, #8, ac4 <kprintf.constprop.0+0x354>
/home/davy/research/pynq-tee/amd-zu3-optee/optee_os/lib/libutils/ext/snprintk.c:390 (discriminator 5)
     b24:	374ffd13 	tbnz	w19, #9, ac4 <kprintf.constprop.0+0x354>
/home/davy/research/pynq-tee/amd-zu3-optee/optee_os/lib/libutils/ext/snprintk.c:390 (discriminator 8)
     b28:	372ffcf3 	tbnz	w19, #5, ac4 <kprintf.constprop.0+0x354>
/home/davy/research/pynq-tee/amd-zu3-optee/optee_os/lib/libutils/ext/snprintk.c:390 (discriminator 11)
     b2c:	3727fcd3 	tbnz	w19, #4, ac4 <kprintf.constprop.0+0x354>
/home/davy/research/pynq-tee/amd-zu3-optee/optee_os/lib/libutils/ext/snprintk.c:390 (discriminator 14)
     b30:	36300333 	tbz	w19, #6, b94 <kprintf.constprop.0+0x424>
/home/davy/research/pynq-tee/amd-zu3-optee/optee_os/lib/libutils/ext/snprintk.c:390 (discriminator 16)
     b34:	37f801e3 	tbnz	w3, #31, b70 <kprintf.constprop.0+0x400>
     b38:	91002c80 	add	x0, x4, #0xb
     b3c:	2a0303e6 	mov	w6, w3
     b40:	927df000 	and	x0, x0, #0xfffffffffffffff8
/home/davy/research/pynq-tee/amd-zu3-optee/optee_os/lib/libutils/ext/snprintk.c:390 (discriminator 1)
     b44:	79800082 	ldrsh	x2, [x4]
     b48:	17ffffe4 	b	ad8 <kprintf.constprop.0+0x368>
/home/davy/research/pynq-tee/amd-zu3-optee/optee_os/lib/libutils/ext/snprintk.c:390 (discriminator 13)
     b4c:	11002066 	add	w6, w3, #0x8
     b50:	710000df 	cmp	w6, #0x0
     b54:	5400008d 	b.le	b64 <kprintf.constprop.0+0x3f4>
     b58:	91003c80 	add	x0, x4, #0xf
     b5c:	927df000 	and	x0, x0, #0xfffffffffffffff8
     b60:	17ffffdd 	b	ad4 <kprintf.constprop.0+0x364>
     b64:	aa0403e0 	mov	x0, x4
     b68:	8b23c364 	add	x4, x27, w3, sxtw
     b6c:	17ffffda 	b	ad4 <kprintf.constprop.0+0x364>
/home/davy/research/pynq-tee/amd-zu3-optee/optee_os/lib/libutils/ext/snprintk.c:390 (discriminator 16)
     b70:	11002066 	add	w6, w3, #0x8
     b74:	710000df 	cmp	w6, #0x0
     b78:	5400008d 	b.le	b88 <kprintf.constprop.0+0x418>
     b7c:	91002c80 	add	x0, x4, #0xb
     b80:	927df000 	and	x0, x0, #0xfffffffffffffff8
     b84:	17fffff0 	b	b44 <kprintf.constprop.0+0x3d4>
     b88:	aa0403e0 	mov	x0, x4
     b8c:	8b23c364 	add	x4, x27, w3, sxtw
     b90:	17ffffed 	b	b44 <kprintf.constprop.0+0x3d4>
/home/davy/research/pynq-tee/amd-zu3-optee/optee_os/lib/libutils/ext/snprintk.c:390 (discriminator 17)
     b94:	37f800c3 	tbnz	w3, #31, bac <kprintf.constprop.0+0x43c>
     b98:	91002c80 	add	x0, x4, #0xb
     b9c:	2a0303e6 	mov	w6, w3
     ba0:	927df000 	and	x0, x0, #0xfffffffffffffff8
/home/davy/research/pynq-tee/amd-zu3-optee/optee_os/lib/libutils/ext/snprintk.c:390 (discriminator 1)
     ba4:	b9800082 	ldrsw	x2, [x4]
     ba8:	17ffffcc 	b	ad8 <kprintf.constprop.0+0x368>
/home/davy/research/pynq-tee/amd-zu3-optee/optee_os/lib/libutils/ext/snprintk.c:390 (discriminator 17)
     bac:	11002066 	add	w6, w3, #0x8
     bb0:	710000df 	cmp	w6, #0x0
     bb4:	5400008d 	b.le	bc4 <kprintf.constprop.0+0x454>
     bb8:	91002c80 	add	x0, x4, #0xb
     bbc:	927df000 	and	x0, x0, #0xfffffffffffffff8
     bc0:	17fffff9 	b	ba4 <kprintf.constprop.0+0x434>
     bc4:	aa0403e0 	mov	x0, x4
     bc8:	8b23c364 	add	x4, x27, w3, sxtw
     bcc:	17fffff6 	b	ba4 <kprintf.constprop.0+0x434>
/home/davy/research/pynq-tee/amd-zu3-optee/optee_os/lib/libutils/ext/snprintk.c:398
     bd0:	36380173 	tbz	w19, #7, bfc <kprintf.constprop.0+0x48c>
/home/davy/research/pynq-tee/amd-zu3-optee/optee_os/lib/libutils/ext/snprintk.c:407
     bd4:	37f802c3 	tbnz	w3, #31, c2c <kprintf.constprop.0+0x4bc>
     bd8:	91003c80 	add	x0, x4, #0xf
     bdc:	2a0303e1 	mov	w1, w3
     be0:	927df000 	and	x0, x0, #0xfffffffffffffff8
/home/davy/research/pynq-tee/amd-zu3-optee/optee_os/lib/libutils/ext/snprintk.c:407 (discriminator 1)
     be4:	f9400082 	ldr	x2, [x4]
     be8:	93407f23 	sxtw	x3, w25
     bec:	f9000043 	str	x3, [x2]
/home/davy/research/pynq-tee/amd-zu3-optee/optee_os/lib/libutils/ext/snprintk.c:411 (discriminator 1)
     bf0:	2a0103e3 	mov	w3, w1
     bf4:	aa0003e4 	mov	x4, x0
     bf8:	17fffefb 	b	7e4 <kprintf.constprop.0+0x74>
/home/davy/research/pynq-tee/amd-zu3-optee/optee_os/lib/libutils/ext/snprintk.c:400
     bfc:	3747fed3 	tbnz	w19, #8, bd4 <kprintf.constprop.0+0x464>
/home/davy/research/pynq-tee/amd-zu3-optee/optee_os/lib/libutils/ext/snprintk.c:402
     c00:	374ffeb3 	tbnz	w19, #9, bd4 <kprintf.constprop.0+0x464>
/home/davy/research/pynq-tee/amd-zu3-optee/optee_os/lib/libutils/ext/snprintk.c:404
     c04:	372ffe93 	tbnz	w19, #5, bd4 <kprintf.constprop.0+0x464>
/home/davy/research/pynq-tee/amd-zu3-optee/optee_os/lib/libutils/ext/snprintk.c:406
     c08:	3727fe73 	tbnz	w19, #4, bd4 <kprintf.constprop.0+0x464>
/home/davy/research/pynq-tee/amd-zu3-optee/optee_os/lib/libutils/ext/snprintk.c:408
     c0c:	36300353 	tbz	w19, #6, c74 <kprintf.constprop.0+0x504>
/home/davy/research/pynq-tee/amd-zu3-optee/optee_os/lib/libutils/ext/snprintk.c:409
     c10:	37f80203 	tbnz	w3, #31, c50 <kprintf.constprop.0+0x4e0>
     c14:	91003c80 	add	x0, x4, #0xf
     c18:	2a0303e1 	mov	w1, w3
     c1c:	927df000 	and	x0, x0, #0xfffffffffffffff8
/home/davy/research/pynq-tee/amd-zu3-optee/optee_os/lib/libutils/ext/snprintk.c:409 (discriminator 1)
     c20:	f9400082 	ldr	x2, [x4]
     c24:	79000059 	strh	w25, [x2]
     c28:	17fffff2 	b	bf0 <kprintf.constprop.0+0x480>
/home/davy/research/pynq-tee/amd-zu3-optee/optee_os/lib/libutils/ext/snprintk.c:407
     c2c:	11002061 	add	w1, w3, #0x8
     c30:	7100003f 	cmp	w1, #0x0
     c34:	5400008d 	b.le	c44 <kprintf.constprop.0+0x4d4>
     c38:	91003c80 	add	x0, x4, #0xf
     c3c:	927df000 	and	x0, x0, #0xfffffffffffffff8
     c40:	17ffffe9 	b	be4 <kprintf.constprop.0+0x474>
     c44:	aa0403e0 	mov	x0, x4
     c48:	8b23c364 	add	x4, x27, w3, sxtw
     c4c:	17ffffe6 	b	be4 <kprintf.constprop.0+0x474>
/home/davy/research/pynq-tee/amd-zu3-optee/optee_os/lib/libutils/ext/snprintk.c:409
     c50:	11002061 	add	w1, w3, #0x8
     c54:	7100003f 	cmp	w1, #0x0
     c58:	5400008d 	b.le	c68 <kprintf.constprop.0+0x4f8>
     c5c:	91003c80 	add	x0, x4, #0xf
     c60:	927df000 	and	x0, x0, #0xfffffffffffffff8
     c64:	17ffffef 	b	c20 <kprintf.constprop.0+0x4b0>
     c68:	aa0403e0 	mov	x0, x4
     c6c:	8b23c364 	add	x4, x27, w3, sxtw
     c70:	17ffffec 	b	c20 <kprintf.constprop.0+0x4b0>
/home/davy/research/pynq-tee/amd-zu3-optee/optee_os/lib/libutils/ext/snprintk.c:411
     c74:	37f800e3 	tbnz	w3, #31, c90 <kprintf.constprop.0+0x520>
     c78:	91003c80 	add	x0, x4, #0xf
     c7c:	2a0303e1 	mov	w1, w3
     c80:	927df000 	and	x0, x0, #0xfffffffffffffff8
/home/davy/research/pynq-tee/amd-zu3-optee/optee_os/lib/libutils/ext/snprintk.c:411 (discriminator 1)
     c84:	f9400082 	ldr	x2, [x4]
     c88:	b9000059 	str	w25, [x2]
     c8c:	17ffffd9 	b	bf0 <kprintf.constprop.0+0x480>
/home/davy/research/pynq-tee/amd-zu3-optee/optee_os/lib/libutils/ext/snprintk.c:411
     c90:	11002061 	add	w1, w3, #0x8
     c94:	7100003f 	cmp	w1, #0x0
     c98:	5400008d 	b.le	ca8 <kprintf.constprop.0+0x538>
     c9c:	91003c80 	add	x0, x4, #0xf
     ca0:	927df000 	and	x0, x0, #0xfffffffffffffff8
     ca4:	17fffff8 	b	c84 <kprintf.constprop.0+0x514>
     ca8:	aa0403e0 	mov	x0, x4
     cac:	8b23c364 	add	x4, x27, w3, sxtw
     cb0:	17fffff5 	b	c84 <kprintf.constprop.0+0x514>
/home/davy/research/pynq-tee/amd-zu3-optee/optee_os/lib/libutils/ext/snprintk.c:414
     cb4:	321c0273 	orr	w19, w19, #0x10
/home/davy/research/pynq-tee/amd-zu3-optee/optee_os/lib/libutils/ext/snprintk.c:417
     cb8:	36380413 	tbz	w19, #7, d38 <kprintf.constprop.0+0x5c8>
/home/davy/research/pynq-tee/amd-zu3-optee/optee_os/lib/libutils/ext/snprintk.c:417 (discriminator 13)
     cbc:	37f80543 	tbnz	w3, #31, d64 <kprintf.constprop.0+0x5f4>
     cc0:	91003c80 	add	x0, x4, #0xf
     cc4:	2a0303e1 	mov	w1, w3
     cc8:	927df000 	and	x0, x0, #0xfffffffffffffff8
     ccc:	f9400082 	ldr	x2, [x4]
/home/davy/research/pynq-tee/amd-zu3-optee/optee_os/lib/libutils/ext/snprintk.c:417 (discriminator 1)
     cd0:	2a0103e3 	mov	w3, w1
     cd4:	aa0003e4 	mov	x4, x0
/home/davy/research/pynq-tee/amd-zu3-optee/optee_os/lib/libutils/ext/snprintk.c:494
     cd8:	52800001 	mov	w1, #0x0                   	// #0
     cdc:	36f82c05 	tbz	w5, #31, 125c <kprintf.constprop.0+0xaec>
     ce0:	910217f6 	add	x22, sp, #0x85
/home/davy/research/pynq-tee/amd-zu3-optee/optee_os/lib/libutils/ext/snprintk.c:512
     ce4:	12000840 	and	w0, w2, #0x7
     ce8:	aa1603e7 	mov	x7, x22
     cec:	1100c000 	add	w0, w0, #0x30
     cf0:	381ffec0 	strb	w0, [x22, #-1]!
/home/davy/research/pynq-tee/amd-zu3-optee/optee_os/lib/libutils/ext/snprintk.c:513
     cf4:	d343fc42 	lsr	x2, x2, #3
/home/davy/research/pynq-tee/amd-zu3-optee/optee_os/lib/libutils/ext/snprintk.c:514 (discriminator 1)
     cf8:	b5ffff62 	cbnz	x2, ce4 <kprintf.constprop.0+0x574>
/home/davy/research/pynq-tee/amd-zu3-optee/optee_os/lib/libutils/ext/snprintk.c:516
     cfc:	360000d3 	tbz	w19, #0, d14 <kprintf.constprop.0+0x5a4>
/home/davy/research/pynq-tee/amd-zu3-optee/optee_os/lib/libutils/ext/snprintk.c:516 (discriminator 1)
     d00:	7100c01f 	cmp	w0, #0x30
     d04:	54000080 	b.eq	d14 <kprintf.constprop.0+0x5a4>  // b.none
/home/davy/research/pynq-tee/amd-zu3-optee/optee_os/lib/libutils/ext/snprintk.c:517
     d08:	52800600 	mov	w0, #0x30                  	// #48
     d0c:	381ff2c0 	sturb	w0, [x22, #-1]
     d10:	d10008f6 	sub	x22, x7, #0x2
/home/davy/research/pynq-tee/amd-zu3-optee/optee_os/lib/libutils/ext/snprintk.c:543
     d14:	910217e2 	add	x2, sp, #0x85
     d18:	cb160042 	sub	x2, x2, x22
/home/davy/research/pynq-tee/amd-zu3-optee/optee_os/lib/libutils/ext/snprintk.c:571
     d1c:	6b05005f 	cmp	w2, w5
/home/davy/research/pynq-tee/amd-zu3-optee/optee_os/lib/libutils/ext/snprintk.c:543
     d20:	2a0203e0 	mov	w0, w2
/home/davy/research/pynq-tee/amd-zu3-optee/optee_os/lib/libutils/ext/snprintk.c:571
     d24:	1a85a042 	csel	w2, w2, w5, ge	// ge = tcont
/home/davy/research/pynq-tee/amd-zu3-optee/optee_os/lib/libutils/ext/snprintk.c:572
     d28:	35002b61 	cbnz	w1, 1294 <kprintf.constprop.0+0xb24>
/home/davy/research/pynq-tee/amd-zu3-optee/optee_os/lib/libutils/ext/snprintk.c:574
     d2c:	36080bf3 	tbz	w19, #1, ea8 <kprintf.constprop.0+0x738>
/home/davy/research/pynq-tee/amd-zu3-optee/optee_os/lib/libutils/ext/snprintk.c:575
     d30:	11000842 	add	w2, w2, #0x2
     d34:	1400005d 	b	ea8 <kprintf.constprop.0+0x738>
/home/davy/research/pynq-tee/amd-zu3-optee/optee_os/lib/libutils/ext/snprintk.c:417 (discriminator 2)
     d38:	3747fc33 	tbnz	w19, #8, cbc <kprintf.constprop.0+0x54c>
/home/davy/research/pynq-tee/amd-zu3-optee/optee_os/lib/libutils/ext/snprintk.c:417 (discriminator 5)
     d3c:	374ffc13 	tbnz	w19, #9, cbc <kprintf.constprop.0+0x54c>
/home/davy/research/pynq-tee/amd-zu3-optee/optee_os/lib/libutils/ext/snprintk.c:417 (discriminator 8)
     d40:	372ffbf3 	tbnz	w19, #5, cbc <kprintf.constprop.0+0x54c>
/home/davy/research/pynq-tee/amd-zu3-optee/optee_os/lib/libutils/ext/snprintk.c:417 (discriminator 11)
     d44:	3727fbd3 	tbnz	w19, #4, cbc <kprintf.constprop.0+0x54c>
/home/davy/research/pynq-tee/amd-zu3-optee/optee_os/lib/libutils/ext/snprintk.c:417 (discriminator 14)
     d48:	36300333 	tbz	w19, #6, dac <kprintf.constprop.0+0x63c>
/home/davy/research/pynq-tee/amd-zu3-optee/optee_os/lib/libutils/ext/snprintk.c:417 (discriminator 16)
     d4c:	37f801e3 	tbnz	w3, #31, d88 <kprintf.constprop.0+0x618>
     d50:	91002c80 	add	x0, x4, #0xb
     d54:	2a0303e1 	mov	w1, w3
     d58:	927df000 	and	x0, x0, #0xfffffffffffffff8
/home/davy/research/pynq-tee/amd-zu3-optee/optee_os/lib/libutils/ext/snprintk.c:417 (discriminator 1)
     d5c:	79400082 	ldrh	w2, [x4]
     d60:	17ffffdc 	b	cd0 <kprintf.constprop.0+0x560>
/home/davy/research/pynq-tee/amd-zu3-optee/optee_os/lib/libutils/ext/snprintk.c:417 (discriminator 13)
     d64:	11002061 	add	w1, w3, #0x8
     d68:	7100003f 	cmp	w1, #0x0
     d6c:	5400008d 	b.le	d7c <kprintf.constprop.0+0x60c>
     d70:	91003c80 	add	x0, x4, #0xf
     d74:	927df000 	and	x0, x0, #0xfffffffffffffff8
     d78:	17ffffd5 	b	ccc <kprintf.constprop.0+0x55c>
     d7c:	aa0403e0 	mov	x0, x4
     d80:	8b23c364 	add	x4, x27, w3, sxtw
     d84:	17ffffd2 	b	ccc <kprintf.constprop.0+0x55c>
/home/davy/research/pynq-tee/amd-zu3-optee/optee_os/lib/libutils/ext/snprintk.c:417 (discriminator 16)
     d88:	11002061 	add	w1, w3, #0x8
     d8c:	7100003f 	cmp	w1, #0x0
     d90:	5400008d 	b.le	da0 <kprintf.constprop.0+0x630>
     d94:	91002c80 	add	x0, x4, #0xb
     d98:	927df000 	and	x0, x0, #0xfffffffffffffff8
     d9c:	17fffff0 	b	d5c <kprintf.constprop.0+0x5ec>
     da0:	aa0403e0 	mov	x0, x4
     da4:	8b23c364 	add	x4, x27, w3, sxtw
     da8:	17ffffed 	b	d5c <kprintf.constprop.0+0x5ec>
/home/davy/research/pynq-tee/amd-zu3-optee/optee_os/lib/libutils/ext/snprintk.c:417 (discriminator 17)
     dac:	37f800c3 	tbnz	w3, #31, dc4 <kprintf.constprop.0+0x654>
     db0:	91002c80 	add	x0, x4, #0xb
     db4:	2a0303e1 	mov	w1, w3
     db8:	927df000 	and	x0, x0, #0xfffffffffffffff8
/home/davy/research/pynq-tee/amd-zu3-optee/optee_os/lib/libutils/ext/snprintk.c:417 (discriminator 1)
     dbc:	b9400082 	ldr	w2, [x4]
     dc0:	17ffffc4 	b	cd0 <kprintf.constprop.0+0x560>
/home/davy/research/pynq-tee/amd-zu3-optee/optee_os/lib/libutils/ext/snprintk.c:417 (discriminator 17)
     dc4:	11002061 	add	w1, w3, #0x8
     dc8:	7100003f 	cmp	w1, #0x0
     dcc:	5400008d 	b.le	ddc <kprintf.constprop.0+0x66c>
     dd0:	91002c80 	add	x0, x4, #0xb
     dd4:	927df000 	and	x0, x0, #0xfffffffffffffff8
     dd8:	17fffff9 	b	dbc <kprintf.constprop.0+0x64c>
     ddc:	aa0403e0 	mov	x0, x4
     de0:	8b23c364 	add	x4, x27, w3, sxtw
     de4:	17fffff6 	b	dbc <kprintf.constprop.0+0x64c>
/home/davy/research/pynq-tee/amd-zu3-optee/optee_os/lib/libutils/ext/snprintk.c:421
     de8:	f9401fe0 	ldr	x0, [sp, #56]
     dec:	36000c20 	tbz	w0, #0, f70 <kprintf.constprop.0+0x800>
/home/davy/research/pynq-tee/amd-zu3-optee/optee_os/lib/libutils/ext/snprintk.c:421 (discriminator 1)
     df0:	39400380 	ldrb	w0, [x28]
     df4:	7101541f 	cmp	w0, #0x55
     df8:	54000bc1 	b.ne	f70 <kprintf.constprop.0+0x800>  // b.any
/home/davy/research/pynq-tee/amd-zu3-optee/optee_os/lib/libutils/ext/snprintk.c:421 (discriminator 2)
     dfc:	39400780 	ldrb	w0, [x28, #1]
     e00:	7101b01f 	cmp	w0, #0x6c
     e04:	54000b61 	b.ne	f70 <kprintf.constprop.0+0x800>  // b.any
/home/davy/research/pynq-tee/amd-zu3-optee/optee_os/lib/libutils/ext/snprintk.c:426
     e08:	91000b9c 	add	x28, x28, #0x2
/home/davy/research/pynq-tee/amd-zu3-optee/optee_os/lib/libutils/ext/snprintk.c:427
     e0c:	37f80a03 	tbnz	w3, #31, f4c <kprintf.constprop.0+0x7dc>
     e10:	91003c9a 	add	x26, x4, #0xf
     e14:	2a0303ee 	mov	w14, w3
     e18:	927df35a 	and	x26, x26, #0xfffffffffffffff8
     e1c:	f9400080 	ldr	x0, [x4]
uuid2str():
/home/davy/research/pynq-tee/amd-zu3-optee/optee_os/lib/libutils/ext/snprintk.c:229
     e20:	910183f6 	add	x22, sp, #0x60
     e24:	90000082 	adrp	x2, 10000 <gcd_pairs+0x90>
     e28:	9103a042 	add	x2, x2, #0xe8
     e2c:	b90033ea 	str	w10, [sp, #48]
     e30:	39403c01 	ldrb	w1, [x0, #15]
     e34:	79400c05 	ldrh	w5, [x0, #6]
     e38:	79400804 	ldrh	w4, [x0, #4]
     e3c:	39402407 	ldrb	w7, [x0, #9]
     e40:	39402006 	ldrb	w6, [x0, #8]
     e44:	b9002be1 	str	w1, [sp, #40]
     e48:	29093be8 	stp	w8, w14, [sp, #72]
     e4c:	f9002bed 	str	x13, [sp, #80]
     e50:	39403801 	ldrb	w1, [x0, #14]
     e54:	b90023e1 	str	w1, [sp, #32]
     e58:	39403401 	ldrb	w1, [x0, #13]
     e5c:	b9001be1 	str	w1, [sp, #24]
     e60:	39403001 	ldrb	w1, [x0, #12]
     e64:	b90013e1 	str	w1, [sp, #16]
     e68:	39402c01 	ldrb	w1, [x0, #11]
     e6c:	b9000be1 	str	w1, [sp, #8]
     e70:	39402801 	ldrb	w1, [x0, #10]
     e74:	b90003e1 	str	w1, [sp]
     e78:	d28004a1 	mov	x1, #0x25                  	// #37
     e7c:	b9400003 	ldr	w3, [x0]
     e80:	aa1603e0 	mov	x0, x22
     e84:	97fffe0a 	bl	6ac <snprintk>
kprintf():
/home/davy/research/pynq-tee/amd-zu3-optee/optee_os/lib/libutils/ext/snprintk.c:571
     e88:	0aa07c02 	bic	w2, w0, w0, asr #31
     e8c:	29493be8 	ldp	w8, w14, [sp, #72]
     e90:	aa1a03e4 	mov	x4, x26
     e94:	f9402bed 	ldr	x13, [sp, #80]
     e98:	2a0e03e3 	mov	w3, w14
     e9c:	b94033ea 	ldr	w10, [sp, #48]
/home/davy/research/pynq-tee/amd-zu3-optee/optee_os/lib/libutils/ext/snprintk.c:291
     ea0:	52800005 	mov	w5, #0x0                   	// #0
/home/davy/research/pynq-tee/amd-zu3-optee/optee_os/lib/libutils/ext/snprintk.c:571
     ea4:	52800001 	mov	w1, #0x0                   	// #0
/home/davy/research/pynq-tee/amd-zu3-optee/optee_os/lib/libutils/ext/snprintk.c:578
     ea8:	6b0a005f 	cmp	w2, w10
     eac:	1a8aa047 	csel	w7, w2, w10, ge	// ge = tcont
     eb0:	0b070339 	add	w25, w25, w7
/home/davy/research/pynq-tee/amd-zu3-optee/optee_os/lib/libutils/ext/snprintk.c:581
     eb4:	52808087 	mov	w7, #0x404                 	// #1028
     eb8:	6a070267 	ands	w7, w19, w7
     ebc:	54000081 	b.ne	ecc <kprintf.constprop.0+0x75c>  // b.any
/home/davy/research/pynq-tee/amd-zu3-optee/optee_os/lib/libutils/ext/snprintk.c:582
     ec0:	4b02014e 	sub	w14, w10, w2
/home/davy/research/pynq-tee/amd-zu3-optee/optee_os/lib/libutils/ext/snprintk.c:583
     ec4:	710001df 	cmp	w14, #0x0
     ec8:	54001eac 	b.gt	129c <kprintf.constprop.0+0xb2c>
/home/davy/research/pynq-tee/amd-zu3-optee/optee_os/lib/libutils/ext/snprintk.c:588
     ecc:	34001f81 	cbz	w1, 12bc <kprintf.constprop.0+0xb4c>
/home/davy/research/pynq-tee/amd-zu3-optee/optee_os/lib/libutils/ext/snprintk.c:589 (discriminator 1)
     ed0:	b40000b4 	cbz	x20, ee4 <kprintf.constprop.0+0x774>
/home/davy/research/pynq-tee/amd-zu3-optee/optee_os/lib/libutils/ext/snprintk.c:589 (discriminator 2)
     ed4:	710002ff 	cmp	w23, #0x0
     ed8:	fa540302 	ccmp	x24, x20, #0x2, eq	// eq = none
     edc:	54000049 	b.ls	ee4 <kprintf.constprop.0+0x774>  // b.plast
/home/davy/research/pynq-tee/amd-zu3-optee/optee_os/lib/libutils/ext/snprintk.c:589 (discriminator 3)
     ee0:	38001681 	strb	w1, [x20], #1
/home/davy/research/pynq-tee/amd-zu3-optee/optee_os/lib/libutils/ext/snprintk.c:596
     ee4:	711000ff 	cmp	w7, #0x400
     ee8:	540000a1 	b.ne	efc <kprintf.constprop.0+0x78c>  // b.any
/home/davy/research/pynq-tee/amd-zu3-optee/optee_os/lib/libutils/ext/snprintk.c:597
     eec:	4b020141 	sub	w1, w10, w2
/home/davy/research/pynq-tee/amd-zu3-optee/optee_os/lib/libutils/ext/snprintk.c:599 (discriminator 3)
     ef0:	52800607 	mov	w7, #0x30                  	// #48
/home/davy/research/pynq-tee/amd-zu3-optee/optee_os/lib/libutils/ext/snprintk.c:598
     ef4:	7100003f 	cmp	w1, #0x0
     ef8:	5400202c 	b.gt	12fc <kprintf.constprop.0+0xb8c>
/home/davy/research/pynq-tee/amd-zu3-optee/optee_os/lib/libutils/ext/snprintk.c:603
     efc:	4b0000a5 	sub	w5, w5, w0
/home/davy/research/pynq-tee/amd-zu3-optee/optee_os/lib/libutils/ext/snprintk.c:605 (discriminator 3)
     f00:	52800601 	mov	w1, #0x30                  	// #48
/home/davy/research/pynq-tee/amd-zu3-optee/optee_os/lib/libutils/ext/snprintk.c:604
     f04:	710000bf 	cmp	w5, #0x0
     f08:	5400208c 	b.gt	1318 <kprintf.constprop.0+0xba8>
     f0c:	2a0003e0 	mov	w0, w0
     f10:	d2800001 	mov	x1, #0x0                   	// #0
/home/davy/research/pynq-tee/amd-zu3-optee/optee_os/lib/libutils/ext/snprintk.c:608 (discriminator 1)
     f14:	eb01001f 	cmp	x0, x1
     f18:	540020e1 	b.ne	1334 <kprintf.constprop.0+0xbc4>  // b.any
/home/davy/research/pynq-tee/amd-zu3-optee/optee_os/lib/libutils/ext/snprintk.c:611
     f1c:	3617c653 	tbz	w19, #2, 7e4 <kprintf.constprop.0+0x74>
/home/davy/research/pynq-tee/amd-zu3-optee/optee_os/lib/libutils/ext/snprintk.c:612
     f20:	4b020142 	sub	w2, w10, w2
/home/davy/research/pynq-tee/amd-zu3-optee/optee_os/lib/libutils/ext/snprintk.c:613
     f24:	7100005f 	cmp	w2, #0x0
     f28:	54ffc5ed 	b.le	7e4 <kprintf.constprop.0+0x74>
/home/davy/research/pynq-tee/amd-zu3-optee/optee_os/lib/libutils/ext/snprintk.c:614 (discriminator 1)
     f2c:	b40000d4 	cbz	x20, f44 <kprintf.constprop.0+0x7d4>
/home/davy/research/pynq-tee/amd-zu3-optee/optee_os/lib/libutils/ext/snprintk.c:614 (discriminator 2)
     f30:	710002ff 	cmp	w23, #0x0
     f34:	fa540302 	ccmp	x24, x20, #0x2, eq	// eq = none
     f38:	54000069 	b.ls	f44 <kprintf.constprop.0+0x7d4>  // b.plast
/home/davy/research/pynq-tee/amd-zu3-optee/optee_os/lib/libutils/ext/snprintk.c:614 (discriminator 3)
     f3c:	52800400 	mov	w0, #0x20                  	// #32
     f40:	38001680 	strb	w0, [x20], #1
     f44:	51000442 	sub	w2, w2, #0x1
     f48:	17fffff7 	b	f24 <kprintf.constprop.0+0x7b4>
/home/davy/research/pynq-tee/amd-zu3-optee/optee_os/lib/libutils/ext/snprintk.c:427
     f4c:	1100206e 	add	w14, w3, #0x8
     f50:	710001df 	cmp	w14, #0x0
     f54:	5400008d 	b.le	f64 <kprintf.constprop.0+0x7f4>
     f58:	91003c9a 	add	x26, x4, #0xf
     f5c:	927df35a 	and	x26, x26, #0xfffffffffffffff8
     f60:	17ffffaf 	b	e1c <kprintf.constprop.0+0x6ac>
     f64:	aa0403fa 	mov	x26, x4
     f68:	8b23c364 	add	x4, x27, w3, sxtw
     f6c:	17ffffac 	b	e1c <kprintf.constprop.0+0x6ac>
/home/davy/research/pynq-tee/amd-zu3-optee/optee_os/lib/libutils/ext/snprintk.c:441
     f70:	37f801e3 	tbnz	w3, #31, fac <kprintf.constprop.0+0x83c>
     f74:	91003c80 	add	x0, x4, #0xf
     f78:	2a0303e1 	mov	w1, w3
     f7c:	927df000 	and	x0, x0, #0xfffffffffffffff8
/home/davy/research/pynq-tee/amd-zu3-optee/optee_os/lib/libutils/ext/snprintk.c:441 (discriminator 1)
     f80:	f9400082 	ldr	x2, [x4]
/home/davy/research/pynq-tee/amd-zu3-optee/optee_os/lib/libutils/ext/snprintk.c:443
     f84:	f0000075 	adrp	x21, f000 <__text_end+0x2084>
/home/davy/research/pynq-tee/amd-zu3-optee/optee_os/lib/libutils/ext/snprintk.c:444
     f88:	321f0273 	orr	w19, w19, #0x2
/home/davy/research/pynq-tee/amd-zu3-optee/optee_os/lib/libutils/ext/snprintk.c:446
     f8c:	2a0103e3 	mov	w3, w1
/home/davy/research/pynq-tee/amd-zu3-optee/optee_os/lib/libutils/ext/snprintk.c:443
     f90:	91398ab5 	add	x21, x21, #0xe62
/home/davy/research/pynq-tee/amd-zu3-optee/optee_os/lib/libutils/ext/snprintk.c:446
     f94:	aa0003e4 	mov	x4, x0
/home/davy/research/pynq-tee/amd-zu3-optee/optee_os/lib/libutils/ext/snprintk.c:445
     f98:	52800f08 	mov	w8, #0x78                  	// #120
/home/davy/research/pynq-tee/amd-zu3-optee/optee_os/lib/libutils/ext/snprintk.c:494
     f9c:	52800001 	mov	w1, #0x0                   	// #0
     fa0:	37ffdb25 	tbnz	w5, #31, b04 <kprintf.constprop.0+0x394>
     fa4:	52800040 	mov	w0, #0x2                   	// #2
     fa8:	140000a6 	b	1240 <kprintf.constprop.0+0xad0>
/home/davy/research/pynq-tee/amd-zu3-optee/optee_os/lib/libutils/ext/snprintk.c:441
     fac:	11002061 	add	w1, w3, #0x8
     fb0:	7100003f 	cmp	w1, #0x0
     fb4:	5400008d 	b.le	fc4 <kprintf.constprop.0+0x854>
     fb8:	91003c80 	add	x0, x4, #0xf
     fbc:	927df000 	and	x0, x0, #0xfffffffffffffff8
     fc0:	17fffff0 	b	f80 <kprintf.constprop.0+0x810>
     fc4:	aa0403e0 	mov	x0, x4
     fc8:	8b23c364 	add	x4, x27, w3, sxtw
     fcc:	17ffffed 	b	f80 <kprintf.constprop.0+0x810>
/home/davy/research/pynq-tee/amd-zu3-optee/optee_os/lib/libutils/ext/snprintk.c:448
     fd0:	37f803e3 	tbnz	w3, #31, 104c <kprintf.constprop.0+0x8dc>
     fd4:	91003c96 	add	x22, x4, #0xf
     fd8:	2a0303fa 	mov	w26, w3
     fdc:	927df2c0 	and	x0, x22, #0xfffffffffffffff8
     fe0:	f9001be0 	str	x0, [sp, #48]
     fe4:	f9400096 	ldr	x22, [x4]
/home/davy/research/pynq-tee/amd-zu3-optee/optee_os/lib/libutils/ext/snprintk.c:448 (discriminator 1)
     fe8:	b5000076 	cbnz	x22, ff4 <kprintf.constprop.0+0x884>
/home/davy/research/pynq-tee/amd-zu3-optee/optee_os/lib/libutils/ext/snprintk.c:450
     fec:	90000086 	adrp	x6, 10000 <gcd_pairs+0x90>
     ff0:	910384d6 	add	x22, x6, #0xe1
/home/davy/research/pynq-tee/amd-zu3-optee/optee_os/lib/libutils/ext/snprintk.c:451
     ff4:	37f80405 	tbnz	w5, #31, 1074 <kprintf.constprop.0+0x904>
/home/davy/research/pynq-tee/amd-zu3-optee/optee_os/lib/libutils/ext/snprintk.c:457
     ff8:	93407ca2 	sxtw	x2, w5
     ffc:	aa1603e0 	mov	x0, x22
    1000:	52800001 	mov	w1, #0x0                   	// #0
    1004:	29092be5 	stp	w5, w10, [sp, #72]
    1008:	b90053e8 	str	w8, [sp, #80]
    100c:	f9002fed 	str	x13, [sp, #88]
    1010:	940000ed 	bl	13c4 <memchr>
/home/davy/research/pynq-tee/amd-zu3-optee/optee_os/lib/libutils/ext/snprintk.c:459
    1014:	f9402fed 	ldr	x13, [sp, #88]
    1018:	29492be5 	ldp	w5, w10, [sp, #72]
    101c:	b94053e8 	ldr	w8, [sp, #80]
    1020:	b4000080 	cbz	x0, 1030 <kprintf.constprop.0+0x8c0>
/home/davy/research/pynq-tee/amd-zu3-optee/optee_os/lib/libutils/ext/snprintk.c:460
    1024:	cb160000 	sub	x0, x0, x22
/home/davy/research/pynq-tee/amd-zu3-optee/optee_os/lib/libutils/ext/snprintk.c:461
    1028:	6b0000bf 	cmp	w5, w0
    102c:	1a80d0a5 	csel	w5, w5, w0, le
/home/davy/research/pynq-tee/amd-zu3-optee/optee_os/lib/libutils/ext/snprintk.c:571
    1030:	f9401be4 	ldr	x4, [sp, #48]
    1034:	0aa57ca2 	bic	w2, w5, w5, asr #31
    1038:	2a0503e0 	mov	w0, w5
    103c:	2a1a03e3 	mov	w3, w26
/home/davy/research/pynq-tee/amd-zu3-optee/optee_os/lib/libutils/ext/snprintk.c:291
    1040:	52800005 	mov	w5, #0x0                   	// #0
/home/davy/research/pynq-tee/amd-zu3-optee/optee_os/lib/libutils/ext/snprintk.c:571
    1044:	52800001 	mov	w1, #0x0                   	// #0
    1048:	17ffff98 	b	ea8 <kprintf.constprop.0+0x738>
/home/davy/research/pynq-tee/amd-zu3-optee/optee_os/lib/libutils/ext/snprintk.c:448
    104c:	1100207a 	add	w26, w3, #0x8
    1050:	7100035f 	cmp	w26, #0x0
    1054:	540000ad 	b.le	1068 <kprintf.constprop.0+0x8f8>
    1058:	91003c96 	add	x22, x4, #0xf
    105c:	927df2c0 	and	x0, x22, #0xfffffffffffffff8
    1060:	f9001be0 	str	x0, [sp, #48]
    1064:	17ffffe0 	b	fe4 <kprintf.constprop.0+0x874>
    1068:	f9001be4 	str	x4, [sp, #48]
    106c:	8b23c364 	add	x4, x27, w3, sxtw
    1070:	17ffffdd 	b	fe4 <kprintf.constprop.0+0x874>
/home/davy/research/pynq-tee/amd-zu3-optee/optee_os/lib/libutils/ext/snprintk.c:466
    1074:	aa1603e0 	mov	x0, x22
    1078:	290923ea 	stp	w10, w8, [sp, #72]
    107c:	f9002bed 	str	x13, [sp, #80]
    1080:	940000dc 	bl	13f0 <strlen>
/home/davy/research/pynq-tee/amd-zu3-optee/optee_os/lib/libutils/ext/snprintk.c:466 (discriminator 1)
    1084:	f9402bed 	ldr	x13, [sp, #80]
    1088:	2a0003e5 	mov	w5, w0
    108c:	294923ea 	ldp	w10, w8, [sp, #72]
    1090:	17ffffe8 	b	1030 <kprintf.constprop.0+0x8c0>
/home/davy/research/pynq-tee/amd-zu3-optee/optee_os/lib/libutils/ext/snprintk.c:470
    1094:	321c0273 	orr	w19, w19, #0x10
/home/davy/research/pynq-tee/amd-zu3-optee/optee_os/lib/libutils/ext/snprintk.c:473
    1098:	363801b3 	tbz	w19, #7, 10cc <kprintf.constprop.0+0x95c>
/home/davy/research/pynq-tee/amd-zu3-optee/optee_os/lib/libutils/ext/snprintk.c:473 (discriminator 13)
    109c:	37f802e3 	tbnz	w3, #31, 10f8 <kprintf.constprop.0+0x988>
    10a0:	91003c80 	add	x0, x4, #0xf
    10a4:	2a0303e1 	mov	w1, w3
    10a8:	927df000 	and	x0, x0, #0xfffffffffffffff8
    10ac:	f9400082 	ldr	x2, [x4]
/home/davy/research/pynq-tee/amd-zu3-optee/optee_os/lib/libutils/ext/snprintk.c:473 (discriminator 1)
    10b0:	aa0003e4 	mov	x4, x0
    10b4:	2a0103e3 	mov	w3, w1
/home/davy/research/pynq-tee/amd-zu3-optee/optee_os/lib/libutils/ext/snprintk.c:488
    10b8:	52800001 	mov	w1, #0x0                   	// #0
/home/davy/research/pynq-tee/amd-zu3-optee/optee_os/lib/libutils/ext/snprintk.c:494
    10bc:	36f80c05 	tbz	w5, #31, 123c <kprintf.constprop.0+0xacc>
    10c0:	910217e0 	add	x0, sp, #0x85
/home/davy/research/pynq-tee/amd-zu3-optee/optee_os/lib/libutils/ext/snprintk.c:523
    10c4:	d2800147 	mov	x7, #0xa                   	// #10
    10c8:	1400006d 	b	127c <kprintf.constprop.0+0xb0c>
/home/davy/research/pynq-tee/amd-zu3-optee/optee_os/lib/libutils/ext/snprintk.c:473 (discriminator 2)
    10cc:	3747fe93 	tbnz	w19, #8, 109c <kprintf.constprop.0+0x92c>
/home/davy/research/pynq-tee/amd-zu3-optee/optee_os/lib/libutils/ext/snprintk.c:473 (discriminator 5)
    10d0:	374ffe73 	tbnz	w19, #9, 109c <kprintf.constprop.0+0x92c>
/home/davy/research/pynq-tee/amd-zu3-optee/optee_os/lib/libutils/ext/snprintk.c:473 (discriminator 8)
    10d4:	372ffe53 	tbnz	w19, #5, 109c <kprintf.constprop.0+0x92c>
/home/davy/research/pynq-tee/amd-zu3-optee/optee_os/lib/libutils/ext/snprintk.c:473 (discriminator 11)
    10d8:	3727fe33 	tbnz	w19, #4, 109c <kprintf.constprop.0+0x92c>
/home/davy/research/pynq-tee/amd-zu3-optee/optee_os/lib/libutils/ext/snprintk.c:473 (discriminator 14)
    10dc:	36300333 	tbz	w19, #6, 1140 <kprintf.constprop.0+0x9d0>
/home/davy/research/pynq-tee/amd-zu3-optee/optee_os/lib/libutils/ext/snprintk.c:473 (discriminator 16)
    10e0:	37f801e3 	tbnz	w3, #31, 111c <kprintf.constprop.0+0x9ac>
    10e4:	91002c80 	add	x0, x4, #0xb
    10e8:	2a0303e1 	mov	w1, w3
    10ec:	927df000 	and	x0, x0, #0xfffffffffffffff8
/home/davy/research/pynq-tee/amd-zu3-optee/optee_os/lib/libutils/ext/snprintk.c:473 (discriminator 1)
    10f0:	79400082 	ldrh	w2, [x4]
    10f4:	17ffffef 	b	10b0 <kprintf.constprop.0+0x940>
/home/davy/research/pynq-tee/amd-zu3-optee/optee_os/lib/libutils/ext/snprintk.c:473 (discriminator 13)
    10f8:	11002061 	add	w1, w3, #0x8
    10fc:	7100003f 	cmp	w1, #0x0
    1100:	5400008d 	b.le	1110 <kprintf.constprop.0+0x9a0>
    1104:	91003c80 	add	x0, x4, #0xf
    1108:	927df000 	and	x0, x0, #0xfffffffffffffff8
    110c:	17ffffe8 	b	10ac <kprintf.constprop.0+0x93c>
    1110:	aa0403e0 	mov	x0, x4
    1114:	8b23c364 	add	x4, x27, w3, sxtw
    1118:	17ffffe5 	b	10ac <kprintf.constprop.0+0x93c>
/home/davy/research/pynq-tee/amd-zu3-optee/optee_os/lib/libutils/ext/snprintk.c:473 (discriminator 16)
    111c:	11002061 	add	w1, w3, #0x8
    1120:	7100003f 	cmp	w1, #0x0
    1124:	5400008d 	b.le	1134 <kprintf.constprop.0+0x9c4>
    1128:	91002c80 	add	x0, x4, #0xb
    112c:	927df000 	and	x0, x0, #0xfffffffffffffff8
    1130:	17fffff0 	b	10f0 <kprintf.constprop.0+0x980>
    1134:	aa0403e0 	mov	x0, x4
    1138:	8b23c364 	add	x4, x27, w3, sxtw
    113c:	17ffffed 	b	10f0 <kprintf.constprop.0+0x980>
/home/davy/research/pynq-tee/amd-zu3-optee/optee_os/lib/libutils/ext/snprintk.c:473 (discriminator 17)
    1140:	37f800c3 	tbnz	w3, #31, 1158 <kprintf.constprop.0+0x9e8>
    1144:	91002c80 	add	x0, x4, #0xb
    1148:	2a0303e1 	mov	w1, w3
    114c:	927df000 	and	x0, x0, #0xfffffffffffffff8
/home/davy/research/pynq-tee/amd-zu3-optee/optee_os/lib/libutils/ext/snprintk.c:473 (discriminator 1)
    1150:	b9400082 	ldr	w2, [x4]
    1154:	17ffffd7 	b	10b0 <kprintf.constprop.0+0x940>
/home/davy/research/pynq-tee/amd-zu3-optee/optee_os/lib/libutils/ext/snprintk.c:473 (discriminator 17)
    1158:	11002061 	add	w1, w3, #0x8
    115c:	7100003f 	cmp	w1, #0x0
    1160:	5400008d 	b.le	1170 <kprintf.constprop.0+0xa00>
    1164:	91002c80 	add	x0, x4, #0xb
    1168:	927df000 	and	x0, x0, #0xfffffffffffffff8
    116c:	17fffff9 	b	1150 <kprintf.constprop.0+0x9e0>
    1170:	aa0403e0 	mov	x0, x4
    1174:	8b23c364 	add	x4, x27, w3, sxtw
    1178:	17fffff6 	b	1150 <kprintf.constprop.0+0x9e0>
/home/davy/research/pynq-tee/amd-zu3-optee/optee_os/lib/libutils/ext/snprintk.c:297
    117c:	d0000075 	adrp	x21, f000 <__text_end+0x2084>
    1180:	91398ab5 	add	x21, x21, #0xe62
    1184:	910046b5 	add	x21, x21, #0x11
    1188:	17fffdc4 	b	898 <kprintf.constprop.0+0x128>
/home/davy/research/pynq-tee/amd-zu3-optee/optee_os/lib/libutils/ext/snprintk.c:481 (discriminator 2)
    118c:	3747b893 	tbnz	w19, #8, 89c <kprintf.constprop.0+0x12c>
/home/davy/research/pynq-tee/amd-zu3-optee/optee_os/lib/libutils/ext/snprintk.c:481 (discriminator 5)
    1190:	374fb873 	tbnz	w19, #9, 89c <kprintf.constprop.0+0x12c>
/home/davy/research/pynq-tee/amd-zu3-optee/optee_os/lib/libutils/ext/snprintk.c:481 (discriminator 8)
    1194:	372fb853 	tbnz	w19, #5, 89c <kprintf.constprop.0+0x12c>
/home/davy/research/pynq-tee/amd-zu3-optee/optee_os/lib/libutils/ext/snprintk.c:481 (discriminator 11)
    1198:	3727b833 	tbnz	w19, #4, 89c <kprintf.constprop.0+0x12c>
/home/davy/research/pynq-tee/amd-zu3-optee/optee_os/lib/libutils/ext/snprintk.c:481 (discriminator 14)
    119c:	36300333 	tbz	w19, #6, 1200 <kprintf.constprop.0+0xa90>
/home/davy/research/pynq-tee/amd-zu3-optee/optee_os/lib/libutils/ext/snprintk.c:481 (discriminator 16)
    11a0:	37f801e3 	tbnz	w3, #31, 11dc <kprintf.constprop.0+0xa6c>
    11a4:	91002c80 	add	x0, x4, #0xb
    11a8:	2a0303e1 	mov	w1, w3
    11ac:	927df000 	and	x0, x0, #0xfffffffffffffff8
/home/davy/research/pynq-tee/amd-zu3-optee/optee_os/lib/libutils/ext/snprintk.c:481 (discriminator 1)
    11b0:	79400082 	ldrh	w2, [x4]
    11b4:	17fffdbf 	b	8b0 <kprintf.constprop.0+0x140>
/home/davy/research/pynq-tee/amd-zu3-optee/optee_os/lib/libutils/ext/snprintk.c:481 (discriminator 13)
    11b8:	11002061 	add	w1, w3, #0x8
    11bc:	7100003f 	cmp	w1, #0x0
    11c0:	5400008d 	b.le	11d0 <kprintf.constprop.0+0xa60>
    11c4:	91003c80 	add	x0, x4, #0xf
    11c8:	927df000 	and	x0, x0, #0xfffffffffffffff8
    11cc:	17fffdb8 	b	8ac <kprintf.constprop.0+0x13c>
    11d0:	aa0403e0 	mov	x0, x4
    11d4:	8b23c364 	add	x4, x27, w3, sxtw
    11d8:	17fffdb5 	b	8ac <kprintf.constprop.0+0x13c>
/home/davy/research/pynq-tee/amd-zu3-optee/optee_os/lib/libutils/ext/snprintk.c:481 (discriminator 16)
    11dc:	11002061 	add	w1, w3, #0x8
    11e0:	7100003f 	cmp	w1, #0x0
    11e4:	5400008d 	b.le	11f4 <kprintf.constprop.0+0xa84>
    11e8:	91002c80 	add	x0, x4, #0xb
    11ec:	927df000 	and	x0, x0, #0xfffffffffffffff8
    11f0:	17fffff0 	b	11b0 <kprintf.constprop.0+0xa40>
    11f4:	aa0403e0 	mov	x0, x4
    11f8:	8b23c364 	add	x4, x27, w3, sxtw
    11fc:	17ffffed 	b	11b0 <kprintf.constprop.0+0xa40>
/home/davy/research/pynq-tee/amd-zu3-optee/optee_os/lib/libutils/ext/snprintk.c:481 (discriminator 17)
    1200:	37f800c3 	tbnz	w3, #31, 1218 <kprintf.constprop.0+0xaa8>
    1204:	91002c80 	add	x0, x4, #0xb
    1208:	2a0303e1 	mov	w1, w3
    120c:	927df000 	and	x0, x0, #0xfffffffffffffff8
/home/davy/research/pynq-tee/amd-zu3-optee/optee_os/lib/libutils/ext/snprintk.c:481 (discriminator 1)
    1210:	b9400082 	ldr	w2, [x4]
    1214:	17fffda7 	b	8b0 <kprintf.constprop.0+0x140>
/home/davy/research/pynq-tee/amd-zu3-optee/optee_os/lib/libutils/ext/snprintk.c:481 (discriminator 17)
    1218:	11002061 	add	w1, w3, #0x8
    121c:	7100003f 	cmp	w1, #0x0
    1220:	5400008d 	b.le	1230 <kprintf.constprop.0+0xac0>
    1224:	91002c80 	add	x0, x4, #0xb
    1228:	927df000 	and	x0, x0, #0xfffffffffffffff8
    122c:	17fffff9 	b	1210 <kprintf.constprop.0+0xaa0>
    1230:	aa0403e0 	mov	x0, x4
    1234:	8b23c364 	add	x4, x27, w3, sxtw
    1238:	17fffff6 	b	1210 <kprintf.constprop.0+0xaa0>
/home/davy/research/pynq-tee/amd-zu3-optee/optee_os/lib/libutils/ext/snprintk.c:494
    123c:	52800020 	mov	w0, #0x1                   	// #1
/home/davy/research/pynq-tee/amd-zu3-optee/optee_os/lib/libutils/ext/snprintk.c:503
    1240:	f100005f 	cmp	x2, #0x0
/home/davy/research/pynq-tee/amd-zu3-optee/optee_os/lib/libutils/ext/snprintk.c:495
    1244:	12157a73 	and	w19, w19, #0xfffffbff
/home/davy/research/pynq-tee/amd-zu3-optee/optee_os/lib/libutils/ext/snprintk.c:503
    1248:	7a4008a0 	ccmp	w5, #0x0, #0x0, eq	// eq = none
    124c:	54ffc541 	b.ne	af4 <kprintf.constprop.0+0x384>  // b.any
/home/davy/research/pynq-tee/amd-zu3-optee/optee_os/lib/libutils/ext/snprintk.c:502
    1250:	910217f6 	add	x22, sp, #0x85
    1254:	52800005 	mov	w5, #0x0                   	// #0
    1258:	17fffeaf 	b	d14 <kprintf.constprop.0+0x5a4>
/home/davy/research/pynq-tee/amd-zu3-optee/optee_os/lib/libutils/ext/snprintk.c:494
    125c:	52800000 	mov	w0, #0x0                   	// #0
    1260:	17fffff8 	b	1240 <kprintf.constprop.0+0xad0>
/home/davy/research/pynq-tee/amd-zu3-optee/optee_os/lib/libutils/ext/snprintk.c:523
    1264:	9ac7084e 	udiv	x14, x2, x7
    1268:	9b0789c2 	msub	x2, x14, x7, x2
    126c:	1100c042 	add	w2, w2, #0x30
    1270:	381ff002 	sturb	w2, [x0, #-1]
/home/davy/research/pynq-tee/amd-zu3-optee/optee_os/lib/libutils/ext/snprintk.c:524
    1274:	aa0e03e2 	mov	x2, x14
/home/davy/research/pynq-tee/amd-zu3-optee/optee_os/lib/libutils/ext/snprintk.c:523
    1278:	aa1603e0 	mov	x0, x22
    127c:	d1000416 	sub	x22, x0, #0x1
/home/davy/research/pynq-tee/amd-zu3-optee/optee_os/lib/libutils/ext/snprintk.c:522
    1280:	f100245f 	cmp	x2, #0x9
    1284:	54ffff08 	b.hi	1264 <kprintf.constprop.0+0xaf4>  // b.pmore
/home/davy/research/pynq-tee/amd-zu3-optee/optee_os/lib/libutils/ext/snprintk.c:526
    1288:	1100c042 	add	w2, w2, #0x30
    128c:	381ff002 	sturb	w2, [x0, #-1]
/home/davy/research/pynq-tee/amd-zu3-optee/optee_os/lib/libutils/ext/snprintk.c:527
    1290:	17fffea1 	b	d14 <kprintf.constprop.0+0x5a4>
/home/davy/research/pynq-tee/amd-zu3-optee/optee_os/lib/libutils/ext/snprintk.c:573
    1294:	11000442 	add	w2, w2, #0x1
    1298:	17ffff04 	b	ea8 <kprintf.constprop.0+0x738>
/home/davy/research/pynq-tee/amd-zu3-optee/optee_os/lib/libutils/ext/snprintk.c:584 (discriminator 1)
    129c:	b40000d4 	cbz	x20, 12b4 <kprintf.constprop.0+0xb44>
/home/davy/research/pynq-tee/amd-zu3-optee/optee_os/lib/libutils/ext/snprintk.c:584 (discriminator 2)
    12a0:	710002ff 	cmp	w23, #0x0
    12a4:	fa540302 	ccmp	x24, x20, #0x2, eq	// eq = none
    12a8:	54000069 	b.ls	12b4 <kprintf.constprop.0+0xb44>  // b.plast
/home/davy/research/pynq-tee/amd-zu3-optee/optee_os/lib/libutils/ext/snprintk.c:584 (discriminator 3)
    12ac:	52800406 	mov	w6, #0x20                  	// #32
    12b0:	38001686 	strb	w6, [x20], #1
    12b4:	510005ce 	sub	w14, w14, #0x1
    12b8:	17ffff03 	b	ec4 <kprintf.constprop.0+0x754>
/home/davy/research/pynq-tee/amd-zu3-optee/optee_os/lib/libutils/ext/snprintk.c:590
    12bc:	360fe153 	tbz	w19, #1, ee4 <kprintf.constprop.0+0x774>
/home/davy/research/pynq-tee/amd-zu3-optee/optee_os/lib/libutils/ext/snprintk.c:591 (discriminator 1)
    12c0:	b4ffe134 	cbz	x20, ee4 <kprintf.constprop.0+0x774>
/home/davy/research/pynq-tee/amd-zu3-optee/optee_os/lib/libutils/ext/snprintk.c:591 (discriminator 2)
    12c4:	710002ff 	cmp	w23, #0x0
    12c8:	fa540302 	ccmp	x24, x20, #0x2, eq	// eq = none
    12cc:	54ffe0c9 	b.ls	ee4 <kprintf.constprop.0+0x774>  // b.plast
/home/davy/research/pynq-tee/amd-zu3-optee/optee_os/lib/libutils/ext/snprintk.c:591 (discriminator 3)
    12d0:	aa1403e1 	mov	x1, x20
    12d4:	5280060e 	mov	w14, #0x30                  	// #48
/home/davy/research/pynq-tee/amd-zu3-optee/optee_os/lib/libutils/ext/snprintk.c:592 (discriminator 2)
    12d8:	710002ff 	cmp	w23, #0x0
/home/davy/research/pynq-tee/amd-zu3-optee/optee_os/lib/libutils/ext/snprintk.c:591 (discriminator 3)
    12dc:	3800142e 	strb	w14, [x1], #1
/home/davy/research/pynq-tee/amd-zu3-optee/optee_os/lib/libutils/ext/snprintk.c:592 (discriminator 2)
    12e0:	fa410302 	ccmp	x24, x1, #0x2, eq	// eq = none
    12e4:	54000089 	b.ls	12f4 <kprintf.constprop.0+0xb84>  // b.plast
/home/davy/research/pynq-tee/amd-zu3-optee/optee_os/lib/libutils/ext/snprintk.c:592 (discriminator 3)
    12e8:	91000a94 	add	x20, x20, #0x2
    12ec:	381ff288 	sturb	w8, [x20, #-1]
    12f0:	17fffefd 	b	ee4 <kprintf.constprop.0+0x774>
    12f4:	aa0103f4 	mov	x20, x1
    12f8:	17fffefb 	b	ee4 <kprintf.constprop.0+0x774>
/home/davy/research/pynq-tee/amd-zu3-optee/optee_os/lib/libutils/ext/snprintk.c:599 (discriminator 1)
    12fc:	b40000b4 	cbz	x20, 1310 <kprintf.constprop.0+0xba0>
/home/davy/research/pynq-tee/amd-zu3-optee/optee_os/lib/libutils/ext/snprintk.c:599 (discriminator 2)
    1300:	710002ff 	cmp	w23, #0x0
    1304:	fa540302 	ccmp	x24, x20, #0x2, eq	// eq = none
    1308:	54000049 	b.ls	1310 <kprintf.constprop.0+0xba0>  // b.plast
/home/davy/research/pynq-tee/amd-zu3-optee/optee_os/lib/libutils/ext/snprintk.c:599 (discriminator 3)
    130c:	38001687 	strb	w7, [x20], #1
    1310:	51000421 	sub	w1, w1, #0x1
    1314:	17fffef8 	b	ef4 <kprintf.constprop.0+0x784>
/home/davy/research/pynq-tee/amd-zu3-optee/optee_os/lib/libutils/ext/snprintk.c:605 (discriminator 1)
    1318:	b40000b4 	cbz	x20, 132c <kprintf.constprop.0+0xbbc>
/home/davy/research/pynq-tee/amd-zu3-optee/optee_os/lib/libutils/ext/snprintk.c:605 (discriminator 2)
    131c:	710002ff 	cmp	w23, #0x0
    1320:	fa540302 	ccmp	x24, x20, #0x2, eq	// eq = none
    1324:	54000049 	b.ls	132c <kprintf.constprop.0+0xbbc>  // b.plast
/home/davy/research/pynq-tee/amd-zu3-optee/optee_os/lib/libutils/ext/snprintk.c:605 (discriminator 3)
    1328:	38001681 	strb	w1, [x20], #1
    132c:	510004a5 	sub	w5, w5, #0x1
    1330:	17fffef5 	b	f04 <kprintf.constprop.0+0x794>
/home/davy/research/pynq-tee/amd-zu3-optee/optee_os/lib/libutils/ext/snprintk.c:609 (discriminator 1)
    1334:	b40000d4 	cbz	x20, 134c <kprintf.constprop.0+0xbdc>
/home/davy/research/pynq-tee/amd-zu3-optee/optee_os/lib/libutils/ext/snprintk.c:609 (discriminator 2)
    1338:	710002ff 	cmp	w23, #0x0
    133c:	fa540302 	ccmp	x24, x20, #0x2, eq	// eq = none
    1340:	54000069 	b.ls	134c <kprintf.constprop.0+0xbdc>  // b.plast
/home/davy/research/pynq-tee/amd-zu3-optee/optee_os/lib/libutils/ext/snprintk.c:609 (discriminator 3)
    1344:	38616ac5 	ldrb	w5, [x22, x1]
    1348:	38001685 	strb	w5, [x20], #1
/home/davy/research/pynq-tee/amd-zu3-optee/optee_os/lib/libutils/ext/snprintk.c:608
    134c:	91000421 	add	x1, x1, #0x1
    1350:	17fffef1 	b	f14 <kprintf.constprop.0+0x7a4>
/home/davy/research/pynq-tee/amd-zu3-optee/optee_os/lib/libutils/ext/snprintk.c:622
    1354:	a9497bfd 	ldp	x29, x30, [sp, #144]
    1358:	2a1903e0 	mov	w0, w25
    135c:	a94a53f3 	ldp	x19, x20, [sp, #160]
    1360:	a94b5bf5 	ldp	x21, x22, [sp, #176]
    1364:	a94c63f7 	ldp	x23, x24, [sp, #192]
    1368:	a94d6bf9 	ldp	x25, x26, [sp, #208]
    136c:	a94e73fb 	ldp	x27, x28, [sp, #224]
    1370:	9103c3ff 	add	sp, sp, #0xf0
    1374:	d65f03c0 	ret

0000000000001378 <__vsprintf>:
__vsprintf():
/home/davy/research/pynq-tee/amd-zu3-optee/optee_os/lib/libutils/ext/snprintk.c:155
    1378:	a9bc7bfd 	stp	x29, x30, [sp, #-64]!
/home/davy/research/pynq-tee/amd-zu3-optee/optee_os/lib/libutils/ext/snprintk.c:156
    137c:	910083e3 	add	x3, sp, #0x20
/home/davy/research/pynq-tee/amd-zu3-optee/optee_os/lib/libutils/ext/snprintk.c:155
    1380:	910003fd 	mov	x29, sp
    1384:	a90153f3 	stp	x19, x20, [sp, #16]
    1388:	aa0003f4 	mov	x20, x0
    138c:	aa0103f3 	mov	x19, x1
/home/davy/research/pynq-tee/amd-zu3-optee/optee_os/lib/libutils/ext/snprintk.c:156
    1390:	aa0303e0 	mov	x0, x3
/home/davy/research/pynq-tee/amd-zu3-optee/optee_os/lib/libutils/ext/snprintk.c:155
    1394:	aa0203e1 	mov	x1, x2
/home/davy/research/pynq-tee/amd-zu3-optee/optee_os/lib/libutils/ext/snprintk.c:156
    1398:	d2800402 	mov	x2, #0x20                  	// #32
    139c:	97fffb19 	bl	0 <memcpy>
    13a0:	aa1403e2 	mov	x2, x20
    13a4:	aa0003e3 	mov	x3, x0
    13a8:	52800004 	mov	w4, #0x0                   	// #0
    13ac:	aa1303e0 	mov	x0, x19
    13b0:	d2800001 	mov	x1, #0x0                   	// #0
    13b4:	97fffcef 	bl	770 <kprintf.constprop.0>
/home/davy/research/pynq-tee/amd-zu3-optee/optee_os/lib/libutils/ext/snprintk.c:157
    13b8:	a94153f3 	ldp	x19, x20, [sp, #16]
    13bc:	a8c47bfd 	ldp	x29, x30, [sp], #64
    13c0:	d65f03c0 	ret

00000000000013c4 <memchr>:
memchr():
/home/davy/research/pynq-tee/amd-zu3-optee/optee_os/lib/libutils/isoc/newlib/memchr.c:109
    13c4:	12001c21 	and	w1, w1, #0xff
/home/davy/research/pynq-tee/amd-zu3-optee/optee_os/lib/libutils/isoc/newlib/memchr.c:153
    13c8:	8b020002 	add	x2, x0, x2
    13cc:	eb02001f 	cmp	x0, x2
    13d0:	54000061 	b.ne	13dc <memchr+0x18>  // b.any
/home/davy/research/pynq-tee/amd-zu3-optee/optee_os/lib/libutils/isoc/newlib/memchr.c:159
    13d4:	d2800000 	mov	x0, #0x0                   	// #0
/home/davy/research/pynq-tee/amd-zu3-optee/optee_os/lib/libutils/isoc/newlib/memchr.c:160
    13d8:	d65f03c0 	ret
/home/davy/research/pynq-tee/amd-zu3-optee/optee_os/lib/libutils/isoc/newlib/memchr.c:154
    13dc:	39400003 	ldrb	w3, [x0]
    13e0:	6b01007f 	cmp	w3, w1
    13e4:	54ffffa0 	b.eq	13d8 <memchr+0x14>  // b.none
/home/davy/research/pynq-tee/amd-zu3-optee/optee_os/lib/libutils/isoc/newlib/memchr.c:156
    13e8:	91000400 	add	x0, x0, #0x1
    13ec:	17fffff8 	b	13cc <memchr+0x8>

00000000000013f0 <strlen>:
strlen():
/home/davy/research/pynq-tee/amd-zu3-optee/optee_os/lib/libutils/isoc/newlib/strlen.c:118
    13f0:	aa0003e1 	mov	x1, x0
    13f4:	39400022 	ldrb	w2, [x1]
    13f8:	35000062 	cbnz	w2, 1404 <strlen+0x14>
/home/davy/research/pynq-tee/amd-zu3-optee/optee_os/lib/libutils/isoc/newlib/strlen.c:121
    13fc:	cb000020 	sub	x0, x1, x0
    1400:	d65f03c0 	ret
/home/davy/research/pynq-tee/amd-zu3-optee/optee_os/lib/libutils/isoc/newlib/strlen.c:119
    1404:	91000421 	add	x1, x1, #0x1
    1408:	17fffffb 	b	13f4 <strlen+0x4>

000000000000140c <trace_ext_puts>:
trace_ext_puts():
/home/davy/research/pynq-tee/amd-zu3-optee/optee_os/lib/libutee/trace_ext.c:22
    140c:	a9be7bfd 	stp	x29, x30, [sp, #-32]!
    1410:	910003fd 	mov	x29, sp
    1414:	f9000bf3 	str	x19, [sp, #16]
    1418:	aa0003f3 	mov	x19, x0
/home/davy/research/pynq-tee/amd-zu3-optee/optee_os/lib/libutee/trace_ext.c:26
    141c:	97fffff5 	bl	13f0 <strlen>
/home/davy/research/pynq-tee/amd-zu3-optee/optee_os/lib/libutee/trace_ext.c:26 (discriminator 1)
    1420:	aa0003e1 	mov	x1, x0
    1424:	aa1303e0 	mov	x0, x19
/home/davy/research/pynq-tee/amd-zu3-optee/optee_os/lib/libutee/trace_ext.c:28
    1428:	f9400bf3 	ldr	x19, [sp, #16]
    142c:	a8c27bfd 	ldp	x29, x30, [sp], #32
/home/davy/research/pynq-tee/amd-zu3-optee/optee_os/lib/libutee/trace_ext.c:26 (discriminator 1)
    1430:	140002df 	b	1fac <_utee_log>

0000000000001434 <trace_ext_get_thread_id>:
trace_ext_get_thread_id():
/home/davy/research/pynq-tee/amd-zu3-optee/optee_os/lib/libutee/trace_ext.c:33
    1434:	12800000 	mov	w0, #0xffffffff            	// #-1
    1438:	d65f03c0 	ret

000000000000143c <printf>:
printf():
/home/davy/research/pynq-tee/amd-zu3-optee/optee_os/lib/libutee/trace_ext.c:41
    143c:	d108c3ff 	sub	sp, sp, #0x230
    1440:	a9157bfd 	stp	x29, x30, [sp, #336]
    1444:	910543fd 	add	x29, sp, #0x150
    1448:	a91653f3 	stp	x19, x20, [sp, #352]
    144c:	aa0003f3 	mov	x19, x0
    1450:	910823e0 	add	x0, sp, #0x208
    1454:	a91f8be1 	stp	x1, x2, [sp, #504]
    1458:	b0000081 	adrp	x1, 12000 <_DYNAMIC>
    145c:	ad0b87e0 	stp	q0, q1, [sp, #368]
    1460:	ad0c8fe2 	stp	q2, q3, [sp, #400]
    1464:	ad0d97e4 	stp	q4, q5, [sp, #432]
    1468:	ad0e9fe6 	stp	q6, q7, [sp, #464]
    146c:	f9409821 	ldr	x1, [x1, #304]
    1470:	a9001003 	stp	x3, x4, [x0]
    1474:	a9011805 	stp	x5, x6, [x0, #16]
    1478:	f90117e7 	str	x7, [sp, #552]
    147c:	f9400020 	ldr	x0, [x1]
    1480:	f900a7e0 	str	x0, [sp, #328]
    1484:	d2800000 	mov	x0, #0x0                   	// #0
/home/davy/research/pynq-tee/amd-zu3-optee/optee_os/lib/libutee/trace_ext.c:46
    1488:	97fffb7e 	bl	280 <trace_get_level>
/home/davy/research/pynq-tee/amd-zu3-optee/optee_os/lib/libutee/trace_ext.c:46 (discriminator 1)
    148c:	7100001f 	cmp	w0, #0x0
    1490:	540003ed 	b.le	150c <printf+0xd0>
/home/davy/research/pynq-tee/amd-zu3-optee/optee_os/lib/libutee/trace_ext.c:49
    1494:	9108c3e0 	add	x0, sp, #0x230
    1498:	a90283e0 	stp	x0, x0, [sp, #40]
    149c:	9107c3e0 	add	x0, sp, #0x1f0
    14a0:	f9001fe0 	str	x0, [sp, #56]
    14a4:	128006e0 	mov	w0, #0xffffffc8            	// #-56
    14a8:	b90043e0 	str	w0, [sp, #64]
    14ac:	12800fe0 	mov	w0, #0xffffff80            	// #-128
/home/davy/research/pynq-tee/amd-zu3-optee/optee_os/lib/libutee/trace_ext.c:50
    14b0:	9100a3e1 	add	x1, sp, #0x28
    14b4:	d2800402 	mov	x2, #0x20                  	// #32
    14b8:	910123f4 	add	x20, sp, #0x48
/home/davy/research/pynq-tee/amd-zu3-optee/optee_os/lib/libutee/trace_ext.c:49
    14bc:	b90047e0 	str	w0, [sp, #68]
/home/davy/research/pynq-tee/amd-zu3-optee/optee_os/lib/libutee/trace_ext.c:50
    14c0:	910003e0 	mov	x0, sp
    14c4:	97fffacf 	bl	0 <memcpy>
    14c8:	aa1303e2 	mov	x2, x19
    14cc:	aa0003e3 	mov	x3, x0
    14d0:	d2802001 	mov	x1, #0x100                 	// #256
    14d4:	aa1403e0 	mov	x0, x20
    14d8:	94002d49 	bl	c9fc <vsnprintf>
    14dc:	2a0003f3 	mov	w19, w0
/home/davy/research/pynq-tee/amd-zu3-optee/optee_os/lib/libutee/trace_ext.c:53
    14e0:	37f80060 	tbnz	w0, #31, 14ec <printf+0xb0>
/home/davy/research/pynq-tee/amd-zu3-optee/optee_os/lib/libutee/trace_ext.c:56
    14e4:	aa1403e0 	mov	x0, x20
    14e8:	97ffffc9 	bl	140c <trace_ext_puts>
/home/davy/research/pynq-tee/amd-zu3-optee/optee_os/lib/libutee/trace_ext.c:59
    14ec:	b0000081 	adrp	x1, 12000 <_DYNAMIC>
    14f0:	f9409821 	ldr	x1, [x1, #304]
    14f4:	f940a7e0 	ldr	x0, [sp, #328]
    14f8:	f9400022 	ldr	x2, [x1]
    14fc:	eb020000 	subs	x0, x0, x2
    1500:	d2800002 	mov	x2, #0x0                   	// #0
    1504:	54000080 	b.eq	1514 <printf+0xd8>  // b.none
    1508:	97fffb4b 	bl	234 <__stack_chk_fail>
/home/davy/research/pynq-tee/amd-zu3-optee/optee_os/lib/libutee/trace_ext.c:47
    150c:	52800013 	mov	w19, #0x0                   	// #0
    1510:	17fffff7 	b	14ec <printf+0xb0>
/home/davy/research/pynq-tee/amd-zu3-optee/optee_os/lib/libutee/trace_ext.c:59
    1514:	a9557bfd 	ldp	x29, x30, [sp, #336]
    1518:	2a1303e0 	mov	w0, w19
    151c:	a95653f3 	ldp	x19, x20, [sp, #352]
    1520:	9108c3ff 	add	sp, sp, #0x230
    1524:	d65f03c0 	ret

0000000000001528 <puts>:
puts():
/home/davy/research/pynq-tee/amd-zu3-optee/optee_os/lib/libutee/trace_ext.c:62
    1528:	a9be7bfd 	stp	x29, x30, [sp, #-32]!
    152c:	910003fd 	mov	x29, sp
    1530:	f9000bf3 	str	x19, [sp, #16]
    1534:	aa0003f3 	mov	x19, x0
/home/davy/research/pynq-tee/amd-zu3-optee/optee_os/lib/libutee/trace_ext.c:63
    1538:	97fffb52 	bl	280 <trace_get_level>
/home/davy/research/pynq-tee/amd-zu3-optee/optee_os/lib/libutee/trace_ext.c:63 (discriminator 1)
    153c:	7100001f 	cmp	w0, #0x0
    1540:	540000cd 	b.le	1558 <puts+0x30>
/home/davy/research/pynq-tee/amd-zu3-optee/optee_os/lib/libutee/trace_ext.c:64
    1544:	aa1303e0 	mov	x0, x19
    1548:	97ffffb1 	bl	140c <trace_ext_puts>
/home/davy/research/pynq-tee/amd-zu3-optee/optee_os/lib/libutee/trace_ext.c:65
    154c:	f0000060 	adrp	x0, 10000 <gcd_pairs+0x90>
    1550:	9120a400 	add	x0, x0, #0x829
    1554:	97ffffae 	bl	140c <trace_ext_puts>
/home/davy/research/pynq-tee/amd-zu3-optee/optee_os/lib/libutee/trace_ext.c:68
    1558:	f9400bf3 	ldr	x19, [sp, #16]
    155c:	52800020 	mov	w0, #0x1                   	// #1
    1560:	a8c27bfd 	ldp	x29, x30, [sp], #32
    1564:	d65f03c0 	ret

0000000000001568 <putchar>:
putchar():
/home/davy/research/pynq-tee/amd-zu3-optee/optee_os/lib/libutee/trace_ext.c:71
    1568:	d100c3ff 	sub	sp, sp, #0x30
    156c:	b0000081 	adrp	x1, 12000 <_DYNAMIC>
    1570:	a9017bfd 	stp	x29, x30, [sp, #16]
    1574:	910043fd 	add	x29, sp, #0x10
    1578:	f9409821 	ldr	x1, [x1, #304]
    157c:	f90013f3 	str	x19, [sp, #32]
    1580:	2a0003f3 	mov	w19, w0
    1584:	f9400020 	ldr	x0, [x1]
    1588:	f90007e0 	str	x0, [sp, #8]
    158c:	d2800000 	mov	x0, #0x0                   	// #0
/home/davy/research/pynq-tee/amd-zu3-optee/optee_os/lib/libutee/trace_ext.c:72
    1590:	390003f3 	strb	w19, [sp]
    1594:	390007ff 	strb	wzr, [sp, #1]
/home/davy/research/pynq-tee/amd-zu3-optee/optee_os/lib/libutee/trace_ext.c:74
    1598:	97fffb3a 	bl	280 <trace_get_level>
/home/davy/research/pynq-tee/amd-zu3-optee/optee_os/lib/libutee/trace_ext.c:74 (discriminator 1)
    159c:	7100001f 	cmp	w0, #0x0
    15a0:	5400006d 	b.le	15ac <putchar+0x44>
/home/davy/research/pynq-tee/amd-zu3-optee/optee_os/lib/libutee/trace_ext.c:75
    15a4:	910003e0 	mov	x0, sp
    15a8:	97ffff99 	bl	140c <trace_ext_puts>
/home/davy/research/pynq-tee/amd-zu3-optee/optee_os/lib/libutee/trace_ext.c:82
    15ac:	b0000081 	adrp	x1, 12000 <_DYNAMIC>
/home/davy/research/pynq-tee/amd-zu3-optee/optee_os/lib/libutee/trace_ext.c:81
    15b0:	12001e60 	and	w0, w19, #0xff
/home/davy/research/pynq-tee/amd-zu3-optee/optee_os/lib/libutee/trace_ext.c:82
    15b4:	f9409821 	ldr	x1, [x1, #304]
    15b8:	f94007e3 	ldr	x3, [sp, #8]
    15bc:	f9400022 	ldr	x2, [x1]
    15c0:	eb020063 	subs	x3, x3, x2
    15c4:	d2800002 	mov	x2, #0x0                   	// #0
    15c8:	54000040 	b.eq	15d0 <putchar+0x68>  // b.none
    15cc:	97fffb1a 	bl	234 <__stack_chk_fail>
    15d0:	f94013f3 	ldr	x19, [sp, #32]
    15d4:	a9417bfd 	ldp	x29, x30, [sp, #16]
    15d8:	9100c3ff 	add	sp, sp, #0x30
    15dc:	d65f03c0 	ret

00000000000015e0 <_get_fn_array>:
_get_fn_array():
/home/davy/research/pynq-tee/amd-zu3-optee/optee_os/lib/libutee/user_ta_entry.c:82 (discriminator 1)
    15e0:	79403009 	ldrh	w9, [x0, #24]
/home/davy/research/pynq-tee/amd-zu3-optee/optee_os/lib/libutee/user_ta_entry.c:93
    15e4:	93407c21 	sxtw	x1, w1
/home/davy/research/pynq-tee/amd-zu3-optee/optee_os/lib/libutee/user_ta_entry.c:96
    15e8:	93407c42 	sxtw	x2, w2
/home/davy/research/pynq-tee/amd-zu3-optee/optee_os/lib/libutee/user_ta_entry.c:82
    15ec:	d2800007 	mov	x7, #0x0                   	// #0
/home/davy/research/pynq-tee/amd-zu3-optee/optee_os/lib/libutee/user_ta_entry.c:83
    15f0:	5280070a 	mov	w10, #0x38                  	// #56
/home/davy/research/pynq-tee/amd-zu3-optee/optee_os/lib/libutee/user_ta_entry.c:82 (discriminator 1)
    15f4:	eb07013f 	cmp	x9, x7
    15f8:	54000048 	b.hi	1600 <_get_fn_array+0x20>  // b.pmore
/home/davy/research/pynq-tee/amd-zu3-optee/optee_os/lib/libutee/user_ta_entry.c:102
    15fc:	d65f03c0 	ret
/home/davy/research/pynq-tee/amd-zu3-optee/optee_os/lib/libutee/user_ta_entry.c:83
    1600:	f9400808 	ldr	x8, [x0, #16]
    1604:	9baa7ce5 	umull	x5, w7, w10
    1608:	8b050106 	add	x6, x8, x5
/home/davy/research/pynq-tee/amd-zu3-optee/optee_os/lib/libutee/user_ta_entry.c:84
    160c:	b8656905 	ldr	w5, [x8, x5]
    1610:	710008bf 	cmp	w5, #0x2
    1614:	54000060 	b.eq	1620 <_get_fn_array+0x40>  // b.none
/home/davy/research/pynq-tee/amd-zu3-optee/optee_os/lib/libutee/user_ta_entry.c:82 (discriminator 2)
    1618:	910004e7 	add	x7, x7, #0x1
    161c:	17fffff6 	b	15f4 <_get_fn_array+0x14>
/home/davy/research/pynq-tee/amd-zu3-optee/optee_os/lib/libutee/user_ta_entry.c:87
    1620:	f9400008 	ldr	x8, [x0]
    1624:	f94008c5 	ldr	x5, [x6, #16]
/home/davy/research/pynq-tee/amd-zu3-optee/optee_os/lib/libutee/user_ta_entry.c:86
    1628:	f94014c6 	ldr	x6, [x6, #40]
/home/davy/research/pynq-tee/amd-zu3-optee/optee_os/lib/libutee/user_ta_entry.c:87
    162c:	8b0800a5 	add	x5, x5, x8
/home/davy/research/pynq-tee/amd-zu3-optee/optee_os/lib/libutee/user_ta_entry.c:88
    1630:	927cecc6 	and	x6, x6, #0xfffffffffffffff0
    1634:	8b0500c6 	add	x6, x6, x5
/home/davy/research/pynq-tee/amd-zu3-optee/optee_os/lib/libutee/user_ta_entry.c:88 (discriminator 1)
    1638:	eb0600bf 	cmp	x5, x6
    163c:	54fffee0 	b.eq	1618 <_get_fn_array+0x38>  // b.none
/home/davy/research/pynq-tee/amd-zu3-optee/optee_os/lib/libutee/user_ta_entry.c:89
    1640:	f9400068 	ldr	x8, [x3]
    1644:	b4000068 	cbz	x8, 1650 <_get_fn_array+0x70>
/home/davy/research/pynq-tee/amd-zu3-optee/optee_os/lib/libutee/user_ta_entry.c:89 (discriminator 1)
    1648:	f9400088 	ldr	x8, [x4]
    164c:	b5fffe68 	cbnz	x8, 1618 <_get_fn_array+0x38>
/home/davy/research/pynq-tee/amd-zu3-optee/optee_os/lib/libutee/user_ta_entry.c:91
    1650:	f94000a8 	ldr	x8, [x5]
    1654:	b4fffe28 	cbz	x8, 1618 <_get_fn_array+0x38>
/home/davy/research/pynq-tee/amd-zu3-optee/optee_os/lib/libutee/user_ta_entry.c:93
    1658:	eb01011f 	cmp	x8, x1
    165c:	540000e1 	b.ne	1678 <_get_fn_array+0x98>  // b.any
/home/davy/research/pynq-tee/amd-zu3-optee/optee_os/lib/libutee/user_ta_entry.c:94
    1660:	f940000b 	ldr	x11, [x0]
    1664:	f94004a8 	ldr	x8, [x5, #8]
    1668:	8b0b0108 	add	x8, x8, x11
    166c:	f9000068 	str	x8, [x3]
/home/davy/research/pynq-tee/amd-zu3-optee/optee_os/lib/libutee/user_ta_entry.c:99
    1670:	910040a5 	add	x5, x5, #0x10
/home/davy/research/pynq-tee/amd-zu3-optee/optee_os/lib/libutee/user_ta_entry.c:88 (discriminator 2)
    1674:	17fffff1 	b	1638 <_get_fn_array+0x58>
/home/davy/research/pynq-tee/amd-zu3-optee/optee_os/lib/libutee/user_ta_entry.c:96
    1678:	eb02011f 	cmp	x8, x2
    167c:	54ffffa1 	b.ne	1670 <_get_fn_array+0x90>  // b.any
/home/davy/research/pynq-tee/amd-zu3-optee/optee_os/lib/libutee/user_ta_entry.c:97
    1680:	f94004a8 	ldr	x8, [x5, #8]
    1684:	d343fd08 	lsr	x8, x8, #3
    1688:	f9000088 	str	x8, [x4]
    168c:	17fffff9 	b	1670 <_get_fn_array+0x90>

0000000000001690 <_fini_iterate_phdr_cb>:
_fini_iterate_phdr_cb():
/home/davy/research/pynq-tee/amd-zu3-optee/optee_os/lib/libutee/user_ta_entry.c:138
    1690:	d10103ff 	sub	sp, sp, #0x40
    1694:	b0000081 	adrp	x1, 12000 <_DYNAMIC>
/home/davy/research/pynq-tee/amd-zu3-optee/optee_os/lib/libutee/user_ta_entry.c:143
    1698:	910043e4 	add	x4, sp, #0x10
    169c:	910023e3 	add	x3, sp, #0x8
/home/davy/research/pynq-tee/amd-zu3-optee/optee_os/lib/libutee/user_ta_entry.c:138
    16a0:	a9027bfd 	stp	x29, x30, [sp, #32]
    16a4:	910083fd 	add	x29, sp, #0x20
    16a8:	f9409821 	ldr	x1, [x1, #304]
    16ac:	f9001bf3 	str	x19, [sp, #48]
/home/davy/research/pynq-tee/amd-zu3-optee/optee_os/lib/libutee/user_ta_entry.c:145
    16b0:	d2800033 	mov	x19, #0x1                   	// #1
/home/davy/research/pynq-tee/amd-zu3-optee/optee_os/lib/libutee/user_ta_entry.c:138
    16b4:	f9400022 	ldr	x2, [x1]
    16b8:	f9000fe2 	str	x2, [sp, #24]
    16bc:	d2800002 	mov	x2, #0x0                   	// #0
/home/davy/research/pynq-tee/amd-zu3-optee/optee_os/lib/libutee/user_ta_entry.c:143
    16c0:	52800341 	mov	w1, #0x1a                  	// #26
    16c4:	52800382 	mov	w2, #0x1c                  	// #28
/home/davy/research/pynq-tee/amd-zu3-optee/optee_os/lib/libutee/user_ta_entry.c:140
    16c8:	a900ffff 	stp	xzr, xzr, [sp, #8]
/home/davy/research/pynq-tee/amd-zu3-optee/optee_os/lib/libutee/user_ta_entry.c:143
    16cc:	97ffffc5 	bl	15e0 <_get_fn_array>
/home/davy/research/pynq-tee/amd-zu3-optee/optee_os/lib/libutee/user_ta_entry.c:145 (discriminator 1)
    16d0:	f9400be0 	ldr	x0, [sp, #16]
    16d4:	eb13001f 	cmp	x0, x19
    16d8:	54000122 	b.cs	16fc <_fini_iterate_phdr_cb+0x6c>  // b.hs, b.nlast
/home/davy/research/pynq-tee/amd-zu3-optee/optee_os/lib/libutee/user_ta_entry.c:149
    16dc:	b0000081 	adrp	x1, 12000 <_DYNAMIC>
    16e0:	f9409821 	ldr	x1, [x1, #304]
    16e4:	f9400fe0 	ldr	x0, [sp, #24]
    16e8:	f9400022 	ldr	x2, [x1]
    16ec:	eb020000 	subs	x0, x0, x2
    16f0:	d2800002 	mov	x2, #0x0                   	// #0
    16f4:	54000100 	b.eq	1714 <_fini_iterate_phdr_cb+0x84>  // b.none
    16f8:	97fffacf 	bl	234 <__stack_chk_fail>
/home/davy/research/pynq-tee/amd-zu3-optee/optee_os/lib/libutee/user_ta_entry.c:146
    16fc:	f94007e1 	ldr	x1, [sp, #8]
    1700:	cb130000 	sub	x0, x0, x19
/home/davy/research/pynq-tee/amd-zu3-optee/optee_os/lib/libutee/user_ta_entry.c:145 (discriminator 3)
    1704:	91000673 	add	x19, x19, #0x1
/home/davy/research/pynq-tee/amd-zu3-optee/optee_os/lib/libutee/user_ta_entry.c:146
    1708:	f8607820 	ldr	x0, [x1, x0, lsl #3]
    170c:	d63f0000 	blr	x0
/home/davy/research/pynq-tee/amd-zu3-optee/optee_os/lib/libutee/user_ta_entry.c:145 (discriminator 3)
    1710:	17fffff0 	b	16d0 <_fini_iterate_phdr_cb+0x40>
/home/davy/research/pynq-tee/amd-zu3-optee/optee_os/lib/libutee/user_ta_entry.c:149
    1714:	f9401bf3 	ldr	x19, [sp, #48]
    1718:	52800000 	mov	w0, #0x0                   	// #0
    171c:	a9427bfd 	ldp	x29, x30, [sp, #32]
    1720:	910103ff 	add	sp, sp, #0x40
    1724:	d65f03c0 	ret

0000000000001728 <ta_header_get_session>:
ta_header_get_session():
/home/davy/research/pynq-tee/amd-zu3-optee/optee_os/lib/libutee/user_ta_entry.c:223
    1728:	2a0003e1 	mov	w1, w0
/home/davy/research/pynq-tee/amd-zu3-optee/optee_os/lib/libutee/user_ta_entry.c:226
    172c:	b0000080 	adrp	x0, 12000 <_DYNAMIC>
    1730:	f9428400 	ldr	x0, [x0, #1288]
/home/davy/research/pynq-tee/amd-zu3-optee/optee_os/lib/libutee/user_ta_entry.c:226 (discriminator 1)
    1734:	b5000040 	cbnz	x0, 173c <ta_header_get_session+0x14>
/home/davy/research/pynq-tee/amd-zu3-optee/optee_os/lib/libutee/user_ta_entry.c:231
    1738:	d65f03c0 	ret
/home/davy/research/pynq-tee/amd-zu3-optee/optee_os/lib/libutee/user_ta_entry.c:227
    173c:	b9400002 	ldr	w2, [x0]
    1740:	6b01005f 	cmp	w2, w1
    1744:	54ffffa0 	b.eq	1738 <ta_header_get_session+0x10>  // b.none
/home/davy/research/pynq-tee/amd-zu3-optee/optee_os/lib/libutee/user_ta_entry.c:226 (discriminator 2)
    1748:	f9400800 	ldr	x0, [x0, #16]
    174c:	17fffffa 	b	1734 <ta_header_get_session+0xc>

0000000000001750 <to_utee_params>:
to_utee_params():
/home/davy/research/pynq-tee/amd-zu3-optee/optee_os/lib/libutee/user_ta_entry.c:282
    1750:	2a0103e3 	mov	w3, w1
    1754:	f8008403 	str	x3, [x0], #8
    1758:	52800003 	mov	w3, #0x0                   	// #0
/home/davy/research/pynq-tee/amd-zu3-optee/optee_os/lib/libutee/user_ta_entry.c:284
    175c:	1ac32425 	lsr	w5, w1, w3
    1760:	12000ca4 	and	w4, w5, #0xf
    1764:	721e04bf 	tst	w5, #0xc
    1768:	540000a1 	b.ne	177c <to_utee_params+0x2c>  // b.any
    176c:	35000164 	cbnz	w4, 1798 <to_utee_params+0x48>
/home/davy/research/pynq-tee/amd-zu3-optee/optee_os/lib/libutee/user_ta_entry.c:300
    1770:	d2800004 	mov	x4, #0x0                   	// #0
/home/davy/research/pynq-tee/amd-zu3-optee/optee_os/lib/libutee/user_ta_entry.c:298
    1774:	f900001f 	str	xzr, [x0]
/home/davy/research/pynq-tee/amd-zu3-optee/optee_os/lib/libutee/user_ta_entry.c:300
    1778:	1400000b 	b	17a4 <to_utee_params+0x54>
/home/davy/research/pynq-tee/amd-zu3-optee/optee_os/lib/libutee/user_ta_entry.c:284
    177c:	51001484 	sub	w4, w4, #0x5
    1780:	7100089f 	cmp	w4, #0x2
    1784:	54ffff68 	b.hi	1770 <to_utee_params+0x20>  // b.pmore
/home/davy/research/pynq-tee/amd-zu3-optee/optee_os/lib/libutee/user_ta_entry.c:294
    1788:	f9400044 	ldr	x4, [x2]
    178c:	f9000004 	str	x4, [x0]
/home/davy/research/pynq-tee/amd-zu3-optee/optee_os/lib/libutee/user_ta_entry.c:295
    1790:	f9400444 	ldr	x4, [x2, #8]
/home/davy/research/pynq-tee/amd-zu3-optee/optee_os/lib/libutee/user_ta_entry.c:296
    1794:	14000004 	b	17a4 <to_utee_params+0x54>
/home/davy/research/pynq-tee/amd-zu3-optee/optee_os/lib/libutee/user_ta_entry.c:288
    1798:	b9400044 	ldr	w4, [x2]
    179c:	f9000004 	str	x4, [x0]
/home/davy/research/pynq-tee/amd-zu3-optee/optee_os/lib/libutee/user_ta_entry.c:289
    17a0:	b9400444 	ldr	w4, [x2, #4]
/home/davy/research/pynq-tee/amd-zu3-optee/optee_os/lib/libutee/user_ta_entry.c:283 (discriminator 1)
    17a4:	11001063 	add	w3, w3, #0x4
/home/davy/research/pynq-tee/amd-zu3-optee/optee_os/lib/libutee/user_ta_entry.c:289
    17a8:	f9000404 	str	x4, [x0, #8]
/home/davy/research/pynq-tee/amd-zu3-optee/optee_os/lib/libutee/user_ta_entry.c:283 (discriminator 1)
    17ac:	91004042 	add	x2, x2, #0x10
    17b0:	91004000 	add	x0, x0, #0x10
    17b4:	7100407f 	cmp	w3, #0x10
    17b8:	54fffd21 	b.ne	175c <to_utee_params+0xc>  // b.any
/home/davy/research/pynq-tee/amd-zu3-optee/optee_os/lib/libutee/user_ta_entry.c:303
    17bc:	d65f03c0 	ret

00000000000017c0 <from_utee_params>:
from_utee_params():
/home/davy/research/pynq-tee/amd-zu3-optee/optee_os/lib/libutee/user_ta_entry.c:310
    17c0:	f8408445 	ldr	x5, [x2], #8
    17c4:	52800003 	mov	w3, #0x0                   	// #0
    17c8:	2a0503e9 	mov	w9, w5
/home/davy/research/pynq-tee/amd-zu3-optee/optee_os/lib/libutee/user_ta_entry.c:316
    17cc:	1ac32528 	lsr	w8, w9, w3
    17d0:	12000d04 	and	w4, w8, #0xf
/home/davy/research/pynq-tee/amd-zu3-optee/optee_os/lib/libutee/user_ta_entry.c:314
    17d4:	a9401c46 	ldp	x6, x7, [x2]
/home/davy/research/pynq-tee/amd-zu3-optee/optee_os/lib/libutee/user_ta_entry.c:316
    17d8:	721e051f 	tst	w8, #0xc
    17dc:	54000141 	b.ne	1804 <from_utee_params+0x44>  // b.any
    17e0:	350001c4 	cbnz	w4, 1818 <from_utee_params+0x58>
/home/davy/research/pynq-tee/amd-zu3-optee/optee_os/lib/libutee/user_ta_entry.c:312 (discriminator 1)
    17e4:	11001063 	add	w3, w3, #0x4
    17e8:	91004042 	add	x2, x2, #0x10
    17ec:	91004000 	add	x0, x0, #0x10
    17f0:	7100407f 	cmp	w3, #0x10
    17f4:	54fffec1 	b.ne	17cc <from_utee_params+0xc>  // b.any
/home/davy/research/pynq-tee/amd-zu3-optee/optee_os/lib/libutee/user_ta_entry.c:334
    17f8:	b4000041 	cbz	x1, 1800 <from_utee_params+0x40>
/home/davy/research/pynq-tee/amd-zu3-optee/optee_os/lib/libutee/user_ta_entry.c:335
    17fc:	b9000025 	str	w5, [x1]
/home/davy/research/pynq-tee/amd-zu3-optee/optee_os/lib/libutee/user_ta_entry.c:336
    1800:	d65f03c0 	ret
/home/davy/research/pynq-tee/amd-zu3-optee/optee_os/lib/libutee/user_ta_entry.c:316
    1804:	51001484 	sub	w4, w4, #0x5
    1808:	7100089f 	cmp	w4, #0x2
    180c:	54fffec8 	b.hi	17e4 <from_utee_params+0x24>  // b.pmore
/home/davy/research/pynq-tee/amd-zu3-optee/optee_os/lib/libutee/user_ta_entry.c:326
    1810:	a9001c06 	stp	x6, x7, [x0]
/home/davy/research/pynq-tee/amd-zu3-optee/optee_os/lib/libutee/user_ta_entry.c:328
    1814:	17fffff4 	b	17e4 <from_utee_params+0x24>
/home/davy/research/pynq-tee/amd-zu3-optee/optee_os/lib/libutee/user_ta_entry.c:320
    1818:	29001c06 	stp	w6, w7, [x0]
/home/davy/research/pynq-tee/amd-zu3-optee/optee_os/lib/libutee/user_ta_entry.c:322
    181c:	17fffff2 	b	17e4 <from_utee_params+0x24>

0000000000001820 <_init_iterate_phdr_cb>:
_init_iterate_phdr_cb():
/home/davy/research/pynq-tee/amd-zu3-optee/optee_os/lib/libutee/user_ta_entry.c:58
    1820:	a9bd7bfd 	stp	x29, x30, [sp, #-48]!
    1824:	910003fd 	mov	x29, sp
    1828:	a90153f3 	stp	x19, x20, [sp, #16]
    182c:	aa0203f4 	mov	x20, x2
    1830:	f90013f5 	str	x21, [sp, #32]
    1834:	aa0003f5 	mov	x21, x0
/home/davy/research/pynq-tee/amd-zu3-optee/optee_os/lib/libutee/user_ta_entry.c:62
    1838:	d2800a00 	mov	x0, #0x50                  	// #80
    183c:	94002b24 	bl	c4cc <malloc>
/home/davy/research/pynq-tee/amd-zu3-optee/optee_os/lib/libutee/user_ta_entry.c:63
    1840:	b5000140 	cbnz	x0, 1868 <_init_iterate_phdr_cb+0x48>
/home/davy/research/pynq-tee/amd-zu3-optee/optee_os/lib/libutee/user_ta_entry.c:64
    1844:	f0000064 	adrp	x4, 10000 <gcd_pairs+0x90>
    1848:	f0000060 	adrp	x0, 10000 <gcd_pairs+0x90>
    184c:	91046484 	add	x4, x4, #0x119
    1850:	912f0c00 	add	x0, x0, #0xbc3
    1854:	52800023 	mov	w3, #0x1                   	// #1
    1858:	52800022 	mov	w2, #0x1                   	// #1
    185c:	52800801 	mov	w1, #0x40                  	// #64
    1860:	97fffb14 	bl	4b0 <trace_printf>
/home/davy/research/pynq-tee/amd-zu3-optee/optee_os/lib/libutee/user_ta_entry.c:65
    1864:	94000277 	bl	2240 <abort>
    1868:	aa0003f3 	mov	x19, x0
/home/davy/research/pynq-tee/amd-zu3-optee/optee_os/lib/libutee/user_ta_entry.c:67
    186c:	aa1503e1 	mov	x1, x21
    1870:	d2800802 	mov	x2, #0x40                  	// #64
    1874:	97fff9e3 	bl	0 <memcpy>
/home/davy/research/pynq-tee/amd-zu3-optee/optee_os/lib/libutee/user_ta_entry.c:68
    1878:	b0000080 	adrp	x0, 12000 <_DYNAMIC>
    187c:	91142000 	add	x0, x0, #0x508
    1880:	f9400c01 	ldr	x1, [x0, #24]
    1884:	a904067f 	stp	xzr, x1, [x19, #64]
/home/davy/research/pynq-tee/amd-zu3-optee/optee_os/lib/libutee/user_ta_entry.c:71
    1888:	f94013f5 	ldr	x21, [sp, #32]
/home/davy/research/pynq-tee/amd-zu3-optee/optee_os/lib/libutee/user_ta_entry.c:68
    188c:	f9000033 	str	x19, [x1]
    1890:	91010273 	add	x19, x19, #0x40
    1894:	f9000c13 	str	x19, [x0, #24]
/home/davy/research/pynq-tee/amd-zu3-optee/optee_os/lib/libutee/user_ta_entry.c:69
    1898:	f9400280 	ldr	x0, [x20]
    189c:	91000400 	add	x0, x0, #0x1
    18a0:	f9000280 	str	x0, [x20]
/home/davy/research/pynq-tee/amd-zu3-optee/optee_os/lib/libutee/user_ta_entry.c:71
    18a4:	52800000 	mov	w0, #0x0                   	// #0
    18a8:	a94153f3 	ldp	x19, x20, [sp, #16]
    18ac:	a8c37bfd 	ldp	x29, x30, [sp], #48
    18b0:	d65f03c0 	ret

00000000000018b4 <__utee_call_elf_init_fn>:
__utee_call_elf_init_fn():
/home/davy/research/pynq-tee/amd-zu3-optee/optee_os/lib/libutee/user_ta_entry.c:105
    18b4:	d101c3ff 	sub	sp, sp, #0x70
    18b8:	b0000080 	adrp	x0, 12000 <_DYNAMIC>
    18bc:	a9027bfd 	stp	x29, x30, [sp, #32]
    18c0:	910083fd 	add	x29, sp, #0x20
    18c4:	f9409800 	ldr	x0, [x0, #304]
    18c8:	a90353f3 	stp	x19, x20, [sp, #48]
/home/davy/research/pynq-tee/amd-zu3-optee/optee_os/lib/libutee/user_ta_entry.c:117
    18cc:	b0000094 	adrp	x20, 12000 <_DYNAMIC>
/home/davy/research/pynq-tee/amd-zu3-optee/optee_os/lib/libutee/user_ta_entry.c:105
    18d0:	a9045bf5 	stp	x21, x22, [sp, #64]
/home/davy/research/pynq-tee/amd-zu3-optee/optee_os/lib/libutee/user_ta_entry.c:109
    18d4:	d2800013 	mov	x19, #0x0                   	// #0
/home/davy/research/pynq-tee/amd-zu3-optee/optee_os/lib/libutee/user_ta_entry.c:105
    18d8:	a90563f7 	stp	x23, x24, [sp, #80]
/home/davy/research/pynq-tee/amd-zu3-optee/optee_os/lib/libutee/user_ta_entry.c:120
    18dc:	910043f8 	add	x24, sp, #0x10
/home/davy/research/pynq-tee/amd-zu3-optee/optee_os/lib/libutee/user_ta_entry.c:118
    18e0:	b0000097 	adrp	x23, 12000 <_DYNAMIC>
/home/davy/research/pynq-tee/amd-zu3-optee/optee_os/lib/libutee/user_ta_entry.c:105
    18e4:	f90033f9 	str	x25, [sp, #96]
/home/davy/research/pynq-tee/amd-zu3-optee/optee_os/lib/libutee/user_ta_entry.c:120
    18e8:	910003f9 	mov	x25, sp
/home/davy/research/pynq-tee/amd-zu3-optee/optee_os/lib/libutee/user_ta_entry.c:105
    18ec:	f9400001 	ldr	x1, [x0]
    18f0:	f9000fe1 	str	x1, [sp, #24]
    18f4:	d2800001 	mov	x1, #0x0                   	// #0
/home/davy/research/pynq-tee/amd-zu3-optee/optee_os/lib/libutee/user_ta_entry.c:114
    18f8:	90000000 	adrp	x0, 1000 <kprintf.constprop.0+0x890>
    18fc:	910023e1 	add	x1, sp, #0x8
    1900:	91208000 	add	x0, x0, #0x820
/home/davy/research/pynq-tee/amd-zu3-optee/optee_os/lib/libutee/user_ta_entry.c:107
    1904:	a9007fff 	stp	xzr, xzr, [sp]
/home/davy/research/pynq-tee/amd-zu3-optee/optee_os/lib/libutee/user_ta_entry.c:108
    1908:	f9000bff 	str	xzr, [sp, #16]
/home/davy/research/pynq-tee/amd-zu3-optee/optee_os/lib/libutee/user_ta_entry.c:114
    190c:	940014e6 	bl	6ca4 <dl_iterate_phdr>
/home/davy/research/pynq-tee/amd-zu3-optee/optee_os/lib/libutee/user_ta_entry.c:117
    1910:	91142280 	add	x0, x20, #0x508
    1914:	f9400c00 	ldr	x0, [x0, #24]
    1918:	f9400400 	ldr	x0, [x0, #8]
    191c:	f9400015 	ldr	x21, [x0]
/home/davy/research/pynq-tee/amd-zu3-optee/optee_os/lib/libutee/user_ta_entry.c:118
    1920:	f94316e1 	ldr	x1, [x23, #1576]
/home/davy/research/pynq-tee/amd-zu3-optee/optee_os/lib/libutee/user_ta_entry.c:117 (discriminator 1)
    1924:	b5000155 	cbnz	x21, 194c <__utee_call_elf_init_fn+0x98>
/home/davy/research/pynq-tee/amd-zu3-optee/optee_os/lib/libutee/user_ta_entry.c:130
    1928:	91142294 	add	x20, x20, #0x508
/home/davy/research/pynq-tee/amd-zu3-optee/optee_os/lib/libutee/user_ta_entry.c:128
    192c:	8b010273 	add	x19, x19, x1
    1930:	f90316f3 	str	x19, [x23, #1576]
/home/davy/research/pynq-tee/amd-zu3-optee/optee_os/lib/libutee/user_ta_entry.c:130
    1934:	f9400a80 	ldr	x0, [x20, #16]
/home/davy/research/pynq-tee/amd-zu3-optee/optee_os/lib/libutee/user_ta_entry.c:130 (discriminator 1)
    1938:	b40004a0 	cbz	x0, 19cc <__utee_call_elf_init_fn+0x118>
/home/davy/research/pynq-tee/amd-zu3-optee/optee_os/lib/libutee/user_ta_entry.c:131 (discriminator 1)
    193c:	a9440413 	ldp	x19, x1, [x0, #64]
/home/davy/research/pynq-tee/amd-zu3-optee/optee_os/lib/libutee/user_ta_entry.c:131
    1940:	b50003b3 	cbnz	x19, 19b4 <__utee_call_elf_init_fn+0x100>
/home/davy/research/pynq-tee/amd-zu3-optee/optee_os/lib/libutee/user_ta_entry.c:131 (discriminator 2)
    1944:	f9000e81 	str	x1, [x20, #24]
    1948:	1400001c 	b	19b8 <__utee_call_elf_init_fn+0x104>
/home/davy/research/pynq-tee/amd-zu3-optee/optee_os/lib/libutee/user_ta_entry.c:118
    194c:	f94007e0 	ldr	x0, [sp, #8]
    1950:	cb010000 	sub	x0, x0, x1
    1954:	eb13001f 	cmp	x0, x19
    1958:	54fffe80 	b.eq	1928 <__utee_call_elf_init_fn+0x74>  // b.none
/home/davy/research/pynq-tee/amd-zu3-optee/optee_os/lib/libutee/user_ta_entry.c:122
    195c:	d2800016 	mov	x22, #0x0                   	// #0
/home/davy/research/pynq-tee/amd-zu3-optee/optee_os/lib/libutee/user_ta_entry.c:120
    1960:	aa1803e4 	mov	x4, x24
    1964:	aa1903e3 	mov	x3, x25
    1968:	aa1503e0 	mov	x0, x21
    196c:	52800362 	mov	w2, #0x1b                  	// #27
    1970:	52800321 	mov	w1, #0x19                  	// #25
    1974:	97ffff1b 	bl	15e0 <_get_fn_array>
/home/davy/research/pynq-tee/amd-zu3-optee/optee_os/lib/libutee/user_ta_entry.c:122 (discriminator 1)
    1978:	f9400be0 	ldr	x0, [sp, #16]
    197c:	eb16001f 	cmp	x0, x22
    1980:	54000108 	b.hi	19a0 <__utee_call_elf_init_fn+0xec>  // b.pmore
/home/davy/research/pynq-tee/amd-zu3-optee/optee_os/lib/libutee/user_ta_entry.c:117 (discriminator 2)
    1984:	f94026a0 	ldr	x0, [x21, #72]
/home/davy/research/pynq-tee/amd-zu3-optee/optee_os/lib/libutee/user_ta_entry.c:126
    1988:	91000673 	add	x19, x19, #0x1
/home/davy/research/pynq-tee/amd-zu3-optee/optee_os/lib/libutee/user_ta_entry.c:124
    198c:	f90003ff 	str	xzr, [sp]
/home/davy/research/pynq-tee/amd-zu3-optee/optee_os/lib/libutee/user_ta_entry.c:125
    1990:	f9000bff 	str	xzr, [sp, #16]
/home/davy/research/pynq-tee/amd-zu3-optee/optee_os/lib/libutee/user_ta_entry.c:117 (discriminator 2)
    1994:	f9400400 	ldr	x0, [x0, #8]
    1998:	f9400015 	ldr	x21, [x0]
    199c:	17ffffe1 	b	1920 <__utee_call_elf_init_fn+0x6c>
/home/davy/research/pynq-tee/amd-zu3-optee/optee_os/lib/libutee/user_ta_entry.c:123
    19a0:	f94003e0 	ldr	x0, [sp]
    19a4:	f8767800 	ldr	x0, [x0, x22, lsl #3]
/home/davy/research/pynq-tee/amd-zu3-optee/optee_os/lib/libutee/user_ta_entry.c:122 (discriminator 3)
    19a8:	910006d6 	add	x22, x22, #0x1
/home/davy/research/pynq-tee/amd-zu3-optee/optee_os/lib/libutee/user_ta_entry.c:123
    19ac:	d63f0000 	blr	x0
/home/davy/research/pynq-tee/amd-zu3-optee/optee_os/lib/libutee/user_ta_entry.c:122 (discriminator 3)
    19b0:	17fffff2 	b	1978 <__utee_call_elf_init_fn+0xc4>
/home/davy/research/pynq-tee/amd-zu3-optee/optee_os/lib/libutee/user_ta_entry.c:131 (discriminator 1)
    19b4:	f9002661 	str	x1, [x19, #72]
/home/davy/research/pynq-tee/amd-zu3-optee/optee_os/lib/libutee/user_ta_entry.c:131 (discriminator 4)
    19b8:	f9402401 	ldr	x1, [x0, #72]
    19bc:	f9000033 	str	x19, [x1]
/home/davy/research/pynq-tee/amd-zu3-optee/optee_os/lib/libutee/user_ta_entry.c:132
    19c0:	94002b01 	bl	c5c4 <free>
/home/davy/research/pynq-tee/amd-zu3-optee/optee_os/lib/libutee/user_ta_entry.c:130 (discriminator 2)
    19c4:	aa1303e0 	mov	x0, x19
    19c8:	17ffffdc 	b	1938 <__utee_call_elf_init_fn+0x84>
/home/davy/research/pynq-tee/amd-zu3-optee/optee_os/lib/libutee/user_ta_entry.c:134
    19cc:	b0000080 	adrp	x0, 12000 <_DYNAMIC>
    19d0:	f9409800 	ldr	x0, [x0, #304]
    19d4:	f9400fe2 	ldr	x2, [sp, #24]
    19d8:	f9400001 	ldr	x1, [x0]
    19dc:	eb010042 	subs	x2, x2, x1
    19e0:	d2800001 	mov	x1, #0x0                   	// #0
    19e4:	54000040 	b.eq	19ec <__utee_call_elf_init_fn+0x138>  // b.none
    19e8:	97fffa13 	bl	234 <__stack_chk_fail>
    19ec:	f94033f9 	ldr	x25, [sp, #96]
    19f0:	a9427bfd 	ldp	x29, x30, [sp, #32]
    19f4:	a94353f3 	ldp	x19, x20, [sp, #48]
    19f8:	a9445bf5 	ldp	x21, x22, [sp, #64]
    19fc:	a94563f7 	ldp	x23, x24, [sp, #80]
    1a00:	9101c3ff 	add	sp, sp, #0x70
    1a04:	d65f03c0 	ret

0000000000001a08 <__utee_call_elf_fini_fn>:
__utee_call_elf_fini_fn():
/home/davy/research/pynq-tee/amd-zu3-optee/optee_os/lib/libutee/user_ta_entry.c:153
    1a08:	d2800001 	mov	x1, #0x0                   	// #0
    1a0c:	90000000 	adrp	x0, 1000 <kprintf.constprop.0+0x890>
    1a10:	911a4000 	add	x0, x0, #0x690
    1a14:	140014a4 	b	6ca4 <dl_iterate_phdr>

0000000000001a18 <ta_header_remove_session>:
ta_header_remove_session():
/home/davy/research/pynq-tee/amd-zu3-optee/optee_os/lib/libutee/user_ta_entry.c:257
    1a18:	a9be7bfd 	stp	x29, x30, [sp, #-32]!
    1a1c:	2a0003e2 	mov	w2, w0
    1a20:	910003fd 	mov	x29, sp
    1a24:	f9000bf3 	str	x19, [sp, #16]
/home/davy/research/pynq-tee/amd-zu3-optee/optee_os/lib/libutee/user_ta_entry.c:261
    1a28:	b0000093 	adrp	x19, 12000 <_DYNAMIC>
    1a2c:	f9428660 	ldr	x0, [x19, #1288]
/home/davy/research/pynq-tee/amd-zu3-optee/optee_os/lib/libutee/user_ta_entry.c:261 (discriminator 1)
    1a30:	b5000080 	cbnz	x0, 1a40 <ta_header_remove_session+0x28>
/home/davy/research/pynq-tee/amd-zu3-optee/optee_os/lib/libutee/user_ta_entry.c:275
    1a34:	f9400bf3 	ldr	x19, [sp, #16]
    1a38:	a8c27bfd 	ldp	x29, x30, [sp], #32
    1a3c:	d65f03c0 	ret
/home/davy/research/pynq-tee/amd-zu3-optee/optee_os/lib/libutee/user_ta_entry.c:262
    1a40:	b9400003 	ldr	w3, [x0]
/home/davy/research/pynq-tee/amd-zu3-optee/optee_os/lib/libutee/user_ta_entry.c:263
    1a44:	f9400801 	ldr	x1, [x0, #16]
/home/davy/research/pynq-tee/amd-zu3-optee/optee_os/lib/libutee/user_ta_entry.c:262
    1a48:	6b02007f 	cmp	w3, w2
    1a4c:	540002c1 	b.ne	1aa4 <ta_header_remove_session+0x8c>  // b.any
/home/davy/research/pynq-tee/amd-zu3-optee/optee_os/lib/libutee/user_ta_entry.c:263 (discriminator 1)
    1a50:	f9400c02 	ldr	x2, [x0, #24]
/home/davy/research/pynq-tee/amd-zu3-optee/optee_os/lib/libutee/user_ta_entry.c:263
    1a54:	b4000221 	cbz	x1, 1a98 <ta_header_remove_session+0x80>
/home/davy/research/pynq-tee/amd-zu3-optee/optee_os/lib/libutee/user_ta_entry.c:263 (discriminator 1)
    1a58:	f9000c22 	str	x2, [x1, #24]
/home/davy/research/pynq-tee/amd-zu3-optee/optee_os/lib/libutee/user_ta_entry.c:263 (discriminator 4)
    1a5c:	f9400c02 	ldr	x2, [x0, #24]
    1a60:	f9000041 	str	x1, [x2]
/home/davy/research/pynq-tee/amd-zu3-optee/optee_os/lib/libutee/user_ta_entry.c:264
    1a64:	940005e0 	bl	31e4 <TEE_Free>
/home/davy/research/pynq-tee/amd-zu3-optee/optee_os/lib/libutee/user_ta_entry.c:269
    1a68:	f9428660 	ldr	x0, [x19, #1288]
    1a6c:	b5fffe40 	cbnz	x0, 1a34 <ta_header_remove_session+0x1c>
/home/davy/research/pynq-tee/amd-zu3-optee/optee_os/lib/libutee/user_ta_entry.c:267
    1a70:	b0000080 	adrp	x0, 12000 <_DYNAMIC>
    1a74:	f940ec00 	ldr	x0, [x0, #472]
    1a78:	f9400801 	ldr	x1, [x0, #16]
/home/davy/research/pynq-tee/amd-zu3-optee/optee_os/lib/libutee/user_ta_entry.c:269 (discriminator 1)
    1a7c:	d2c00280 	mov	x0, #0x1400000000          	// #85899345920
    1a80:	ea21001f 	bics	xzr, x0, x1
    1a84:	54fffd80 	b.eq	1a34 <ta_header_remove_session+0x1c>  // b.none
uninit_instance():
/home/davy/research/pynq-tee/amd-zu3-optee/optee_os/lib/libutee/user_ta_entry.c:207
    1a88:	97fff9ae 	bl	140 <TA_DestroyEntryPoint>
ta_header_remove_session():
/home/davy/research/pynq-tee/amd-zu3-optee/optee_os/lib/libutee/user_ta_entry.c:275
    1a8c:	f9400bf3 	ldr	x19, [sp, #16]
    1a90:	a8c27bfd 	ldp	x29, x30, [sp], #32
uninit_instance():
/home/davy/research/pynq-tee/amd-zu3-optee/optee_os/lib/libutee/user_ta_entry.c:208
    1a94:	17ffffdd 	b	1a08 <__utee_call_elf_fini_fn>
ta_header_remove_session():
/home/davy/research/pynq-tee/amd-zu3-optee/optee_os/lib/libutee/user_ta_entry.c:263 (discriminator 2)
    1a98:	91142263 	add	x3, x19, #0x508
    1a9c:	f9000462 	str	x2, [x3, #8]
    1aa0:	17ffffef 	b	1a5c <ta_header_remove_session+0x44>
/home/davy/research/pynq-tee/amd-zu3-optee/optee_os/lib/libutee/user_ta_entry.c:261 (discriminator 2)
    1aa4:	aa0103e0 	mov	x0, x1
    1aa8:	17ffffe2 	b	1a30 <ta_header_remove_session+0x18>

0000000000001aac <__utee_entry>:
__utee_entry():
/home/davy/research/pynq-tee/amd-zu3-optee/optee_os/lib/libutee/user_ta_entry.c:433
    1aac:	d10243ff 	sub	sp, sp, #0x90
    1ab0:	b0000084 	adrp	x4, 12000 <_DYNAMIC>
/home/davy/research/pynq-tee/amd-zu3-optee/optee_os/lib/libutee/user_ta_entry.c:436
    1ab4:	f100041f 	cmp	x0, #0x1
/home/davy/research/pynq-tee/amd-zu3-optee/optee_os/lib/libutee/user_ta_entry.c:433
    1ab8:	a9057bfd 	stp	x29, x30, [sp, #80]
    1abc:	910143fd 	add	x29, sp, #0x50
    1ac0:	a9075bf5 	stp	x21, x22, [sp, #112]
    1ac4:	aa0103f5 	mov	x21, x1
    1ac8:	aa0203f6 	mov	x22, x2
    1acc:	f9409881 	ldr	x1, [x4, #304]
    1ad0:	a90653f3 	stp	x19, x20, [sp, #96]
    1ad4:	aa0403f4 	mov	x20, x4
    1ad8:	a90863f7 	stp	x23, x24, [sp, #128]
    1adc:	f9400022 	ldr	x2, [x1]
    1ae0:	f90027e2 	str	x2, [sp, #72]
    1ae4:	d2800002 	mov	x2, #0x0                   	// #0
/home/davy/research/pynq-tee/amd-zu3-optee/optee_os/lib/libutee/user_ta_entry.c:436
    1ae8:	54000d40 	b.eq	1c90 <__utee_entry+0x1e4>  // b.none
    1aec:	f100081f 	cmp	x0, #0x2
    1af0:	54000e20 	b.eq	1cb4 <__utee_entry+0x208>  // b.none
    1af4:	b5001180 	cbnz	x0, 1d24 <__utee_entry+0x278>
ta_header_add_session():
/home/davy/research/pynq-tee/amd-zu3-optee/optee_os/lib/libutee/user_ta_entry.c:235
    1af8:	2a1503e0 	mov	w0, w21
    1afc:	97ffff0b 	bl	1728 <ta_header_get_session>
/home/davy/research/pynq-tee/amd-zu3-optee/optee_os/lib/libutee/user_ta_entry.c:238
    1b00:	b5000720 	cbnz	x0, 1be4 <__utee_entry+0x138>
init_instance():
/home/davy/research/pynq-tee/amd-zu3-optee/optee_os/lib/libutee/user_ta_entry.c:172
    1b04:	b0000097 	adrp	x23, 12000 <_DYNAMIC>
    1b08:	9118a2e0 	add	x0, x23, #0x628
    1b0c:	39402001 	ldrb	w1, [x0, #8]
    1b10:	37000501 	tbnz	w1, #0, 1bb0 <__utee_entry+0x104>
/home/davy/research/pynq-tee/amd-zu3-optee/optee_os/lib/libutee/user_ta_entry.c:175
    1b14:	39402400 	ldrb	w0, [x0, #9]
    1b18:	37000400 	tbnz	w0, #0, 1b98 <__utee_entry+0xec>
/home/davy/research/pynq-tee/amd-zu3-optee/optee_os/lib/libutee/user_ta_entry.c:178
    1b1c:	97fff9be 	bl	214 <tahead_get_trace_level>
/home/davy/research/pynq-tee/amd-zu3-optee/optee_os/lib/libutee/user_ta_entry.c:178 (discriminator 1)
    1b20:	97fff9d1 	bl	264 <trace_set_level>
/home/davy/research/pynq-tee/amd-zu3-optee/optee_os/lib/libutee/user_ta_entry.c:180
    1b24:	f9409e80 	ldr	x0, [x20, #312]
    1b28:	f9400001 	ldr	x1, [x0]
    1b2c:	f940be80 	ldr	x0, [x20, #376]
    1b30:	94002b72 	bl	c8f8 <malloc_add_pool>
/home/davy/research/pynq-tee/amd-zu3-optee/optee_os/lib/libutee/user_ta_entry.c:181
    1b34:	f940a280 	ldr	x0, [x20, #320]
    1b38:	f9400018 	ldr	x24, [x0]
    1b3c:	b4000178 	cbz	x24, 1b68 <__utee_entry+0xbc>
/home/davy/research/pynq-tee/amd-zu3-optee/optee_os/lib/libutee/user_ta_entry.c:182
    1b40:	94002aa7 	bl	c5dc <raw_malloc_get_ctx_size>
/home/davy/research/pynq-tee/amd-zu3-optee/optee_os/lib/libutee/user_ta_entry.c:182 (discriminator 1)
    1b44:	94002a62 	bl	c4cc <malloc>
/home/davy/research/pynq-tee/amd-zu3-optee/optee_os/lib/libutee/user_ta_entry.c:182 (discriminator 2)
    1b48:	f940da93 	ldr	x19, [x20, #432]
    1b4c:	f9000260 	str	x0, [x19]
/home/davy/research/pynq-tee/amd-zu3-optee/optee_os/lib/libutee/user_ta_entry.c:183
    1b50:	b40000c0 	cbz	x0, 1b68 <__utee_entry+0xbc>
/home/davy/research/pynq-tee/amd-zu3-optee/optee_os/lib/libutee/user_ta_entry.c:184
    1b54:	94002aa4 	bl	c5e4 <raw_malloc_init_ctx>
/home/davy/research/pynq-tee/amd-zu3-optee/optee_os/lib/libutee/user_ta_entry.c:185
    1b58:	f9400260 	ldr	x0, [x19]
    1b5c:	aa1803e2 	mov	x2, x24
    1b60:	f940de81 	ldr	x1, [x20, #440]
    1b64:	94002aab 	bl	c610 <raw_malloc_add_pool>
get_memtag_implementation():
/home/davy/research/pynq-tee/amd-zu3-optee/optee_os/lib/libutee/user_ta_entry.c:161
    1b68:	910013e2 	add	x2, sp, #0x4
    1b6c:	f0000061 	adrp	x1, 10000 <gcd_pairs+0x90>
    1b70:	9104c821 	add	x1, x1, #0x132
    1b74:	12800040 	mov	w0, #0xfffffffd            	// #-3
/home/davy/research/pynq-tee/amd-zu3-optee/optee_os/lib/libutee/user_ta_entry.c:159
    1b78:	b90007ff 	str	wzr, [sp, #4]
/home/davy/research/pynq-tee/amd-zu3-optee/optee_os/lib/libutee/user_ta_entry.c:161
    1b7c:	940010d6 	bl	5ed4 <TEE_GetPropertyAsU32>
init_instance():
/home/davy/research/pynq-tee/amd-zu3-optee/optee_os/lib/libutee/user_ta_entry.c:191
    1b80:	94000806 	bl	3b98 <_TEE_MathAPI_Init>
/home/davy/research/pynq-tee/amd-zu3-optee/optee_os/lib/libutee/user_ta_entry.c:192
    1b84:	940013a8 	bl	6a24 <__utee_tcb_init>
/home/davy/research/pynq-tee/amd-zu3-optee/optee_os/lib/libutee/user_ta_entry.c:193
    1b88:	97ffff4b 	bl	18b4 <__utee_call_elf_init_fn>
/home/davy/research/pynq-tee/amd-zu3-optee/optee_os/lib/libutee/user_ta_entry.c:194
    1b8c:	9118a2e0 	add	x0, x23, #0x628
    1b90:	52800021 	mov	w1, #0x1                   	// #1
    1b94:	39002401 	strb	w1, [x0, #9]
/home/davy/research/pynq-tee/amd-zu3-optee/optee_os/lib/libutee/user_ta_entry.c:197
    1b98:	97fff95d 	bl	10c <TA_CreateEntryPoint>
    1b9c:	2a0003f3 	mov	w19, w0
/home/davy/research/pynq-tee/amd-zu3-optee/optee_os/lib/libutee/user_ta_entry.c:198
    1ba0:	350005a0 	cbnz	w0, 1c54 <__utee_entry+0x1a8>
/home/davy/research/pynq-tee/amd-zu3-optee/optee_os/lib/libutee/user_ta_entry.c:199
    1ba4:	9118a2f7 	add	x23, x23, #0x628
    1ba8:	52800020 	mov	w0, #0x1                   	// #1
    1bac:	390022e0 	strb	w0, [x23, #8]
ta_header_add_session():
/home/davy/research/pynq-tee/amd-zu3-optee/optee_os/lib/libutee/user_ta_entry.c:245
    1bb0:	52b00001 	mov	w1, #0x80000000            	// #-2147483648
    1bb4:	d2800400 	mov	x0, #0x20                  	// #32
    1bb8:	94000545 	bl	30cc <TEE_Malloc>
/home/davy/research/pynq-tee/amd-zu3-optee/optee_os/lib/libutee/user_ta_entry.c:247
    1bbc:	b4000660 	cbz	x0, 1c88 <__utee_entry+0x1dc>
/home/davy/research/pynq-tee/amd-zu3-optee/optee_os/lib/libutee/user_ta_entry.c:251
    1bc0:	b0000081 	adrp	x1, 12000 <_DYNAMIC>
    1bc4:	91142021 	add	x1, x1, #0x508
/home/davy/research/pynq-tee/amd-zu3-optee/optee_os/lib/libutee/user_ta_entry.c:250
    1bc8:	a900fc1f 	stp	xzr, xzr, [x0, #8]
/home/davy/research/pynq-tee/amd-zu3-optee/optee_os/lib/libutee/user_ta_entry.c:251
    1bcc:	f9400422 	ldr	x2, [x1, #8]
/home/davy/research/pynq-tee/amd-zu3-optee/optee_os/lib/libutee/user_ta_entry.c:249
    1bd0:	b9000015 	str	w21, [x0]
/home/davy/research/pynq-tee/amd-zu3-optee/optee_os/lib/libutee/user_ta_entry.c:251
    1bd4:	f9000c02 	str	x2, [x0, #24]
    1bd8:	f9000040 	str	x0, [x2]
    1bdc:	91004000 	add	x0, x0, #0x10
    1be0:	f9000420 	str	x0, [x1, #8]
entry_open_session():
/home/davy/research/pynq-tee/amd-zu3-optee/optee_os/lib/libutee/user_ta_entry.c:350
    1be4:	2a1503e0 	mov	w0, w21
    1be8:	97fffed0 	bl	1728 <ta_header_get_session>
    1bec:	aa0003f3 	mov	x19, x0
/home/davy/research/pynq-tee/amd-zu3-optee/optee_os/lib/libutee/user_ta_entry.c:351
    1bf0:	b40009e0 	cbz	x0, 1d2c <__utee_entry+0x280>
/home/davy/research/pynq-tee/amd-zu3-optee/optee_os/lib/libutee/user_ta_entry.c:354
    1bf4:	910023f7 	add	x23, sp, #0x8
    1bf8:	aa1603e2 	mov	x2, x22
    1bfc:	910013e1 	add	x1, sp, #0x4
    1c00:	aa1703e0 	mov	x0, x23
    1c04:	97fffeef 	bl	17c0 <from_utee_params>
/home/davy/research/pynq-tee/amd-zu3-optee/optee_os/lib/libutee/user_ta_entry.c:355
    1c08:	b94007f8 	ldr	w24, [sp, #4]
ta_header_save_params():
/home/davy/research/pynq-tee/amd-zu3-optee/optee_os/lib/libutee/user_ta_entry.c:214
    1c0c:	f940d280 	ldr	x0, [x20, #416]
/home/davy/research/pynq-tee/amd-zu3-optee/optee_os/lib/libutee/user_ta_entry.c:217
    1c10:	aa1703e1 	mov	x1, x23
    1c14:	d2800802 	mov	x2, #0x40                  	// #64
/home/davy/research/pynq-tee/amd-zu3-optee/optee_os/lib/libutee/user_ta_entry.c:214
    1c18:	b9000018 	str	w24, [x0]
/home/davy/research/pynq-tee/amd-zu3-optee/optee_os/lib/libutee/user_ta_entry.c:217
    1c1c:	f940e280 	ldr	x0, [x20, #448]
    1c20:	97fff8f8 	bl	0 <memcpy>
entry_open_session():
/home/davy/research/pynq-tee/amd-zu3-optee/optee_os/lib/libutee/user_ta_entry.c:357
    1c24:	91002262 	add	x2, x19, #0x8
    1c28:	aa1703e1 	mov	x1, x23
    1c2c:	2a1803e0 	mov	w0, w24
    1c30:	97fff97b 	bl	21c <TA_OpenSessionEntryPoint>
/home/davy/research/pynq-tee/amd-zu3-optee/optee_os/lib/libutee/user_ta_entry.c:360
    1c34:	aa1703e2 	mov	x2, x23
/home/davy/research/pynq-tee/amd-zu3-optee/optee_os/lib/libutee/user_ta_entry.c:357
    1c38:	2a0003f3 	mov	w19, w0
/home/davy/research/pynq-tee/amd-zu3-optee/optee_os/lib/libutee/user_ta_entry.c:360
    1c3c:	2a1803e1 	mov	w1, w24
    1c40:	aa1603e0 	mov	x0, x22
    1c44:	97fffec3 	bl	1750 <to_utee_params>
/home/davy/research/pynq-tee/amd-zu3-optee/optee_os/lib/libutee/user_ta_entry.c:362
    1c48:	34000073 	cbz	w19, 1c54 <__utee_entry+0x1a8>
/home/davy/research/pynq-tee/amd-zu3-optee/optee_os/lib/libutee/user_ta_entry.c:363
    1c4c:	2a1503e0 	mov	w0, w21
    1c50:	97ffff72 	bl	1a18 <ta_header_remove_session>
ta_header_save_params():
/home/davy/research/pynq-tee/amd-zu3-optee/optee_os/lib/libutee/user_ta_entry.c:214
    1c54:	f940d280 	ldr	x0, [x20, #416]
/home/davy/research/pynq-tee/amd-zu3-optee/optee_os/lib/libutee/user_ta_entry.c:219
    1c58:	52800001 	mov	w1, #0x0                   	// #0
    1c5c:	d2800802 	mov	x2, #0x40                  	// #64
/home/davy/research/pynq-tee/amd-zu3-optee/optee_os/lib/libutee/user_ta_entry.c:214
    1c60:	b900001f 	str	wzr, [x0]
/home/davy/research/pynq-tee/amd-zu3-optee/optee_os/lib/libutee/user_ta_entry.c:219
    1c64:	f940e280 	ldr	x0, [x20, #448]
    1c68:	94002b91 	bl	caac <memset>
__utee_entry():
/home/davy/research/pynq-tee/amd-zu3-optee/optee_os/lib/libutee/user_ta_entry.c:458
    1c6c:	f9409a94 	ldr	x20, [x20, #304]
    1c70:	f94027e0 	ldr	x0, [sp, #72]
    1c74:	f9400281 	ldr	x1, [x20]
    1c78:	eb010000 	subs	x0, x0, x1
    1c7c:	d2800001 	mov	x1, #0x0                   	// #0
    1c80:	540005a0 	b.eq	1d34 <__utee_entry+0x288>  // b.none
    1c84:	97fff96c 	bl	234 <__stack_chk_fail>
entry_open_session():
/home/davy/research/pynq-tee/amd-zu3-optee/optee_os/lib/libutee/user_ta_entry.c:348
    1c88:	129ffe73 	mov	w19, #0xffff000c            	// #-65524
    1c8c:	17fffff2 	b	1c54 <__utee_entry+0x1a8>
entry_close_session():
/home/davy/research/pynq-tee/amd-zu3-optee/optee_os/lib/libutee/user_ta_entry.c:369
    1c90:	2a1503e0 	mov	w0, w21
    1c94:	97fffea5 	bl	1728 <ta_header_get_session>
/home/davy/research/pynq-tee/amd-zu3-optee/optee_os/lib/libutee/user_ta_entry.c:371
    1c98:	b40004a0 	cbz	x0, 1d2c <__utee_entry+0x280>
/home/davy/research/pynq-tee/amd-zu3-optee/optee_os/lib/libutee/user_ta_entry.c:374
    1c9c:	f9400400 	ldr	x0, [x0, #8]
/home/davy/research/pynq-tee/amd-zu3-optee/optee_os/lib/libutee/user_ta_entry.c:377
    1ca0:	52800013 	mov	w19, #0x0                   	// #0
/home/davy/research/pynq-tee/amd-zu3-optee/optee_os/lib/libutee/user_ta_entry.c:374
    1ca4:	97fff92c 	bl	154 <TA_CloseSessionEntryPoint>
/home/davy/research/pynq-tee/amd-zu3-optee/optee_os/lib/libutee/user_ta_entry.c:376
    1ca8:	2a1503e0 	mov	w0, w21
    1cac:	97ffff5b 	bl	1a18 <ta_header_remove_session>
/home/davy/research/pynq-tee/amd-zu3-optee/optee_os/lib/libutee/user_ta_entry.c:377
    1cb0:	17ffffe9 	b	1c54 <__utee_entry+0x1a8>
entry_invoke_command():
/home/davy/research/pynq-tee/amd-zu3-optee/optee_os/lib/libutee/user_ta_entry.c:386
    1cb4:	2a1503e0 	mov	w0, w21
    1cb8:	97fffe9c 	bl	1728 <ta_header_get_session>
    1cbc:	aa0003f3 	mov	x19, x0
/home/davy/research/pynq-tee/amd-zu3-optee/optee_os/lib/libutee/user_ta_entry.c:388
    1cc0:	b4000360 	cbz	x0, 1d2c <__utee_entry+0x280>
/home/davy/research/pynq-tee/amd-zu3-optee/optee_os/lib/libutee/user_ta_entry.c:391
    1cc4:	910023f5 	add	x21, sp, #0x8
    1cc8:	aa0303f7 	mov	x23, x3
    1ccc:	aa1603e2 	mov	x2, x22
    1cd0:	910013e1 	add	x1, sp, #0x4
    1cd4:	aa1503e0 	mov	x0, x21
    1cd8:	97fffeba 	bl	17c0 <from_utee_params>
ta_header_save_params():
/home/davy/research/pynq-tee/amd-zu3-optee/optee_os/lib/libutee/user_ta_entry.c:214
    1cdc:	f940d280 	ldr	x0, [x20, #416]
/home/davy/research/pynq-tee/amd-zu3-optee/optee_os/lib/libutee/user_ta_entry.c:217
    1ce0:	aa1503e1 	mov	x1, x21
entry_invoke_command():
/home/davy/research/pynq-tee/amd-zu3-optee/optee_os/lib/libutee/user_ta_entry.c:392
    1ce4:	b94007f8 	ldr	w24, [sp, #4]
ta_header_save_params():
/home/davy/research/pynq-tee/amd-zu3-optee/optee_os/lib/libutee/user_ta_entry.c:217
    1ce8:	d2800802 	mov	x2, #0x40                  	// #64
/home/davy/research/pynq-tee/amd-zu3-optee/optee_os/lib/libutee/user_ta_entry.c:214
    1cec:	b9000018 	str	w24, [x0]
/home/davy/research/pynq-tee/amd-zu3-optee/optee_os/lib/libutee/user_ta_entry.c:217
    1cf0:	f940e280 	ldr	x0, [x20, #448]
    1cf4:	97fff8c3 	bl	0 <memcpy>
entry_invoke_command():
/home/davy/research/pynq-tee/amd-zu3-optee/optee_os/lib/libutee/user_ta_entry.c:394
    1cf8:	f9400660 	ldr	x0, [x19, #8]
    1cfc:	aa1503e3 	mov	x3, x21
    1d00:	2a1803e2 	mov	w2, w24
    1d04:	2a1703e1 	mov	w1, w23
    1d08:	97fff948 	bl	228 <TA_InvokeCommandEntryPoint>
    1d0c:	2a0003f3 	mov	w19, w0
/home/davy/research/pynq-tee/amd-zu3-optee/optee_os/lib/libutee/user_ta_entry.c:397
    1d10:	aa1503e2 	mov	x2, x21
    1d14:	2a1803e1 	mov	w1, w24
    1d18:	aa1603e0 	mov	x0, x22
    1d1c:	97fffe8d 	bl	1750 <to_utee_params>
/home/davy/research/pynq-tee/amd-zu3-optee/optee_os/lib/libutee/user_ta_entry.c:398
    1d20:	17ffffcd 	b	1c54 <__utee_entry+0x1a8>
__utee_entry():
/home/davy/research/pynq-tee/amd-zu3-optee/optee_os/lib/libutee/user_ta_entry.c:436
    1d24:	129ffeb3 	mov	w19, #0xffff000a            	// #-65526
    1d28:	17ffffcb 	b	1c54 <__utee_entry+0x1a8>
entry_close_session():
/home/davy/research/pynq-tee/amd-zu3-optee/optee_os/lib/libutee/user_ta_entry.c:372
    1d2c:	129fff13 	mov	w19, #0xffff0007            	// #-65529
    1d30:	17ffffc9 	b	1c54 <__utee_entry+0x1a8>
__utee_entry():
/home/davy/research/pynq-tee/amd-zu3-optee/optee_os/lib/libutee/user_ta_entry.c:458
    1d34:	a9457bfd 	ldp	x29, x30, [sp, #80]
    1d38:	2a1303e0 	mov	w0, w19
    1d3c:	a94653f3 	ldp	x19, x20, [sp, #96]
    1d40:	a9475bf5 	ldp	x21, x22, [sp, #112]
    1d44:	a94863f7 	ldp	x23, x24, [sp, #128]
    1d48:	910243ff 	add	sp, sp, #0x90
    1d4c:	d65f03c0 	ret

0000000000001d50 <to_gp11_param>:
to_gp11_param():
/home/davy/research/pynq-tee/amd-zu3-optee/optee_os/lib/libutee/user_ta_entry_compat.c:11
    1d50:	52800003 	mov	w3, #0x0                   	// #0
/home/davy/research/pynq-tee/amd-zu3-optee/optee_os/lib/libutee/user_ta_entry_compat.c:15
    1d54:	1ac32405 	lsr	w5, w0, w3
    1d58:	12000ca4 	and	w4, w5, #0xf
    1d5c:	721e04bf 	tst	w5, #0xc
    1d60:	54000101 	b.ne	1d80 <to_gp11_param+0x30>  // b.any
    1d64:	350001e4 	cbnz	w4, 1da0 <to_gp11_param+0x50>
/home/davy/research/pynq-tee/amd-zu3-optee/optee_os/lib/libutee/user_ta_entry_compat.c:14 (discriminator 1)
    1d68:	11001063 	add	w3, w3, #0x4
    1d6c:	91004021 	add	x1, x1, #0x10
    1d70:	91004042 	add	x2, x2, #0x10
    1d74:	7100407f 	cmp	w3, #0x10
    1d78:	54fffee1 	b.ne	1d54 <to_gp11_param+0x4>  // b.any
/home/davy/research/pynq-tee/amd-zu3-optee/optee_os/lib/libutee/user_ta_entry_compat.c:32
    1d7c:	d65f03c0 	ret
/home/davy/research/pynq-tee/amd-zu3-optee/optee_os/lib/libutee/user_ta_entry_compat.c:15
    1d80:	51001484 	sub	w4, w4, #0x5
    1d84:	7100089f 	cmp	w4, #0x2
    1d88:	54ffff08 	b.hi	1d68 <to_gp11_param+0x18>  // b.pmore
/home/davy/research/pynq-tee/amd-zu3-optee/optee_os/lib/libutee/user_ta_entry_compat.c:25
    1d8c:	f9400024 	ldr	x4, [x1]
    1d90:	f9000044 	str	x4, [x2]
/home/davy/research/pynq-tee/amd-zu3-optee/optee_os/lib/libutee/user_ta_entry_compat.c:26
    1d94:	f9400424 	ldr	x4, [x1, #8]
    1d98:	b9000844 	str	w4, [x2, #8]
/home/davy/research/pynq-tee/amd-zu3-optee/optee_os/lib/libutee/user_ta_entry_compat.c:27
    1d9c:	17fffff3 	b	1d68 <to_gp11_param+0x18>
/home/davy/research/pynq-tee/amd-zu3-optee/optee_os/lib/libutee/user_ta_entry_compat.c:19
    1da0:	b9400024 	ldr	w4, [x1]
    1da4:	b9000044 	str	w4, [x2]
/home/davy/research/pynq-tee/amd-zu3-optee/optee_os/lib/libutee/user_ta_entry_compat.c:20
    1da8:	b9400424 	ldr	w4, [x1, #4]
    1dac:	b9000444 	str	w4, [x2, #4]
/home/davy/research/pynq-tee/amd-zu3-optee/optee_os/lib/libutee/user_ta_entry_compat.c:21
    1db0:	17ffffee 	b	1d68 <to_gp11_param+0x18>

0000000000001db4 <from_gp11_param>:
from_gp11_param():
/home/davy/research/pynq-tee/amd-zu3-optee/optee_os/lib/libutee/user_ta_entry_compat.c:37
    1db4:	52800003 	mov	w3, #0x0                   	// #0
/home/davy/research/pynq-tee/amd-zu3-optee/optee_os/lib/libutee/user_ta_entry_compat.c:41
    1db8:	1ac32405 	lsr	w5, w0, w3
    1dbc:	12000ca4 	and	w4, w5, #0xf
    1dc0:	721e04bf 	tst	w5, #0xc
    1dc4:	54000101 	b.ne	1de4 <from_gp11_param+0x30>  // b.any
    1dc8:	350001e4 	cbnz	w4, 1e04 <from_gp11_param+0x50>
/home/davy/research/pynq-tee/amd-zu3-optee/optee_os/lib/libutee/user_ta_entry_compat.c:40 (discriminator 1)
    1dcc:	11001063 	add	w3, w3, #0x4
    1dd0:	91004021 	add	x1, x1, #0x10
    1dd4:	91004042 	add	x2, x2, #0x10
    1dd8:	7100407f 	cmp	w3, #0x10
    1ddc:	54fffee1 	b.ne	1db8 <from_gp11_param+0x4>  // b.any
/home/davy/research/pynq-tee/amd-zu3-optee/optee_os/lib/libutee/user_ta_entry_compat.c:58
    1de0:	d65f03c0 	ret
/home/davy/research/pynq-tee/amd-zu3-optee/optee_os/lib/libutee/user_ta_entry_compat.c:41
    1de4:	51001484 	sub	w4, w4, #0x5
    1de8:	7100089f 	cmp	w4, #0x2
    1dec:	54ffff08 	b.hi	1dcc <from_gp11_param+0x18>  // b.pmore
/home/davy/research/pynq-tee/amd-zu3-optee/optee_os/lib/libutee/user_ta_entry_compat.c:51
    1df0:	f9400024 	ldr	x4, [x1]
    1df4:	f9000044 	str	x4, [x2]
/home/davy/research/pynq-tee/amd-zu3-optee/optee_os/lib/libutee/user_ta_entry_compat.c:52
    1df8:	b9400824 	ldr	w4, [x1, #8]
    1dfc:	f9000444 	str	x4, [x2, #8]
/home/davy/research/pynq-tee/amd-zu3-optee/optee_os/lib/libutee/user_ta_entry_compat.c:53
    1e00:	17fffff3 	b	1dcc <from_gp11_param+0x18>
/home/davy/research/pynq-tee/amd-zu3-optee/optee_os/lib/libutee/user_ta_entry_compat.c:45
    1e04:	b9400024 	ldr	w4, [x1]
    1e08:	b9000044 	str	w4, [x2]
/home/davy/research/pynq-tee/amd-zu3-optee/optee_os/lib/libutee/user_ta_entry_compat.c:46
    1e0c:	b9400424 	ldr	w4, [x1, #4]
    1e10:	b9000444 	str	w4, [x2, #4]
/home/davy/research/pynq-tee/amd-zu3-optee/optee_os/lib/libutee/user_ta_entry_compat.c:47
    1e14:	17ffffee 	b	1dcc <from_gp11_param+0x18>

0000000000001e18 <__ta_open_sess>:
__ta_open_sess():
/home/davy/research/pynq-tee/amd-zu3-optee/optee_os/lib/libutee/user_ta_entry_compat.c:70
    1e18:	d10243ff 	sub	sp, sp, #0x90
    1e1c:	a9057bfd 	stp	x29, x30, [sp, #80]
    1e20:	910143fd 	add	x29, sp, #0x50
    1e24:	a90653f3 	stp	x19, x20, [sp, #96]
    1e28:	b0000094 	adrp	x20, 12000 <_DYNAMIC>
/home/davy/research/pynq-tee/amd-zu3-optee/optee_os/lib/libutee/user_ta_entry_compat.c:71
    1e2c:	910023f3 	add	x19, sp, #0x8
/home/davy/research/pynq-tee/amd-zu3-optee/optee_os/lib/libutee/user_ta_entry_compat.c:70
    1e30:	a9075bf5 	stp	x21, x22, [sp, #112]
    1e34:	2a0003f5 	mov	w21, w0
    1e38:	aa0103f6 	mov	x22, x1
    1e3c:	f9409a80 	ldr	x0, [x20, #304]
    1e40:	a90863f7 	stp	x23, x24, [sp, #128]
    1e44:	aa0303f7 	mov	x23, x3
    1e48:	f9400001 	ldr	x1, [x0]
    1e4c:	f90027e1 	str	x1, [sp, #72]
    1e50:	d2800001 	mov	x1, #0x0                   	// #0
    1e54:	aa0203f8 	mov	x24, x2
/home/davy/research/pynq-tee/amd-zu3-optee/optee_os/lib/libutee/user_ta_entry_compat.c:71
    1e58:	aa1303e0 	mov	x0, x19
    1e5c:	d2800802 	mov	x2, #0x40                  	// #64
    1e60:	94002b13 	bl	caac <memset>
/home/davy/research/pynq-tee/amd-zu3-optee/optee_os/lib/libutee/user_ta_entry_compat.c:74
    1e64:	aa1303e2 	mov	x2, x19
    1e68:	aa1603e1 	mov	x1, x22
    1e6c:	2a1503e0 	mov	w0, w21
    1e70:	97ffffb8 	bl	1d50 <to_gp11_param>
/home/davy/research/pynq-tee/amd-zu3-optee/optee_os/lib/libutee/user_ta_entry_compat.c:75
    1e74:	aa1803e2 	mov	x2, x24
    1e78:	aa1303e1 	mov	x1, x19
    1e7c:	d63f02e0 	blr	x23
    1e80:	2a0003e6 	mov	w6, w0
/home/davy/research/pynq-tee/amd-zu3-optee/optee_os/lib/libutee/user_ta_entry_compat.c:76
    1e84:	aa1303e1 	mov	x1, x19
    1e88:	2a1503e0 	mov	w0, w21
    1e8c:	aa1603e2 	mov	x2, x22
    1e90:	97ffffc9 	bl	1db4 <from_gp11_param>
/home/davy/research/pynq-tee/amd-zu3-optee/optee_os/lib/libutee/user_ta_entry_compat.c:79
    1e94:	f9409a94 	ldr	x20, [x20, #304]
    1e98:	f94027e0 	ldr	x0, [sp, #72]
    1e9c:	f9400281 	ldr	x1, [x20]
    1ea0:	eb010000 	subs	x0, x0, x1
    1ea4:	d2800001 	mov	x1, #0x0                   	// #0
    1ea8:	54000040 	b.eq	1eb0 <__ta_open_sess+0x98>  // b.none
    1eac:	97fff8e2 	bl	234 <__stack_chk_fail>
    1eb0:	a9457bfd 	ldp	x29, x30, [sp, #80]
    1eb4:	2a0603e0 	mov	w0, w6
    1eb8:	a94653f3 	ldp	x19, x20, [sp, #96]
    1ebc:	a9475bf5 	ldp	x21, x22, [sp, #112]
    1ec0:	a94863f7 	ldp	x23, x24, [sp, #128]
    1ec4:	910243ff 	add	sp, sp, #0x90
    1ec8:	d65f03c0 	ret

0000000000001ecc <__ta_invoke_cmd>:
__ta_invoke_cmd():
/home/davy/research/pynq-tee/amd-zu3-optee/optee_os/lib/libutee/user_ta_entry_compat.c:90
    1ecc:	d10283ff 	sub	sp, sp, #0xa0
    1ed0:	a9057bfd 	stp	x29, x30, [sp, #80]
    1ed4:	910143fd 	add	x29, sp, #0x50
    1ed8:	a9075bf5 	stp	x21, x22, [sp, #112]
    1edc:	b0000095 	adrp	x21, 12000 <_DYNAMIC>
    1ee0:	aa0303f6 	mov	x22, x3
    1ee4:	a90863f7 	stp	x23, x24, [sp, #128]
    1ee8:	aa0003f8 	mov	x24, x0
    1eec:	aa0403f7 	mov	x23, x4
    1ef0:	f9409aa0 	ldr	x0, [x21, #304]
    1ef4:	a90653f3 	stp	x19, x20, [sp, #96]
/home/davy/research/pynq-tee/amd-zu3-optee/optee_os/lib/libutee/user_ta_entry_compat.c:91
    1ef8:	910023f3 	add	x19, sp, #0x8
/home/davy/research/pynq-tee/amd-zu3-optee/optee_os/lib/libutee/user_ta_entry_compat.c:90
    1efc:	f9004bf9 	str	x25, [sp, #144]
    1f00:	2a0203f4 	mov	w20, w2
    1f04:	2a0103f9 	mov	w25, w1
/home/davy/research/pynq-tee/amd-zu3-optee/optee_os/lib/libutee/user_ta_entry_compat.c:91
    1f08:	d2800802 	mov	x2, #0x40                  	// #64
/home/davy/research/pynq-tee/amd-zu3-optee/optee_os/lib/libutee/user_ta_entry_compat.c:90
    1f0c:	f9400001 	ldr	x1, [x0]
    1f10:	f90027e1 	str	x1, [sp, #72]
    1f14:	d2800001 	mov	x1, #0x0                   	// #0
/home/davy/research/pynq-tee/amd-zu3-optee/optee_os/lib/libutee/user_ta_entry_compat.c:91
    1f18:	aa1303e0 	mov	x0, x19
    1f1c:	94002ae4 	bl	caac <memset>
/home/davy/research/pynq-tee/amd-zu3-optee/optee_os/lib/libutee/user_ta_entry_compat.c:94
    1f20:	aa1303e2 	mov	x2, x19
    1f24:	aa1603e1 	mov	x1, x22
    1f28:	2a1403e0 	mov	w0, w20
    1f2c:	97ffff89 	bl	1d50 <to_gp11_param>
/home/davy/research/pynq-tee/amd-zu3-optee/optee_os/lib/libutee/user_ta_entry_compat.c:95
    1f30:	aa1303e3 	mov	x3, x19
    1f34:	2a1403e2 	mov	w2, w20
    1f38:	2a1903e1 	mov	w1, w25
    1f3c:	aa1803e0 	mov	x0, x24
    1f40:	d63f02e0 	blr	x23
    1f44:	2a0003e6 	mov	w6, w0
/home/davy/research/pynq-tee/amd-zu3-optee/optee_os/lib/libutee/user_ta_entry_compat.c:96
    1f48:	aa1303e1 	mov	x1, x19
    1f4c:	2a1403e0 	mov	w0, w20
    1f50:	aa1603e2 	mov	x2, x22
    1f54:	97ffff98 	bl	1db4 <from_gp11_param>
/home/davy/research/pynq-tee/amd-zu3-optee/optee_os/lib/libutee/user_ta_entry_compat.c:99
    1f58:	f9409ab5 	ldr	x21, [x21, #304]
    1f5c:	f94027e0 	ldr	x0, [sp, #72]
    1f60:	f94002a1 	ldr	x1, [x21]
    1f64:	eb010000 	subs	x0, x0, x1
    1f68:	d2800001 	mov	x1, #0x0                   	// #0
    1f6c:	54000040 	b.eq	1f74 <__ta_invoke_cmd+0xa8>  // b.none
    1f70:	97fff8b1 	bl	234 <__stack_chk_fail>
    1f74:	f9404bf9 	ldr	x25, [sp, #144]
    1f78:	2a0603e0 	mov	w0, w6
    1f7c:	a9457bfd 	ldp	x29, x30, [sp, #80]
    1f80:	a94653f3 	ldp	x19, x20, [sp, #96]
    1f84:	a9475bf5 	ldp	x21, x22, [sp, #112]
    1f88:	a94863f7 	ldp	x23, x24, [sp, #128]
    1f8c:	910283ff 	add	sp, sp, #0xa0
    1f90:	d65f03c0 	ret

0000000000001f94 <_utee_panic>:
_utee_panic():
/home/davy/research/pynq-tee/amd-zu3-optee/optee_os/lib/libutee/arch/arm/utee_syscalls_a64.S:41
    1f94:	a9bf7bfd 	stp	x29, x30, [sp, #-16]!
/home/davy/research/pynq-tee/amd-zu3-optee/optee_os/lib/libutee/arch/arm/utee_syscalls_a64.S:42
    1f98:	910003e1 	mov	x1, sp
/home/davy/research/pynq-tee/amd-zu3-optee/optee_os/lib/libutee/arch/arm/utee_syscalls_a64.S:43
    1f9c:	94000007 	bl	1fb8 <__utee_panic>

0000000000001fa0 <_utee_return>:
_utee_return():
/home/davy/research/pynq-tee/amd-zu3-optee/optee_os/lib/libutee/include/utee_syscalls_asm.S:8
    1fa0:	d2800008 	mov	x8, #0x0                   	// #0
    1fa4:	d4000001 	svc	#0x0
    1fa8:	d65f03c0 	ret

0000000000001fac <_utee_log>:
_utee_log():
/home/davy/research/pynq-tee/amd-zu3-optee/optee_os/lib/libutee/include/utee_syscalls_asm.S:10
    1fac:	d2800028 	mov	x8, #0x1                   	// #1
    1fb0:	d4000001 	svc	#0x0
    1fb4:	d65f03c0 	ret

0000000000001fb8 <__utee_panic>:
__utee_panic():
/home/davy/research/pynq-tee/amd-zu3-optee/optee_os/lib/libutee/include/utee_syscalls_asm.S:12
    1fb8:	d2800048 	mov	x8, #0x2                   	// #2
    1fbc:	d4000001 	svc	#0x0
    1fc0:	d65f03c0 	ret

0000000000001fc4 <_utee_get_property>:
_utee_get_property():
/home/davy/research/pynq-tee/amd-zu3-optee/optee_os/lib/libutee/include/utee_syscalls_asm.S:14
    1fc4:	d2800068 	mov	x8, #0x3                   	// #3
    1fc8:	d4000001 	svc	#0x0
    1fcc:	d65f03c0 	ret

0000000000001fd0 <_utee_get_property_name_to_index>:
_utee_get_property_name_to_index():
/home/davy/research/pynq-tee/amd-zu3-optee/optee_os/lib/libutee/include/utee_syscalls_asm.S:16
    1fd0:	d2800088 	mov	x8, #0x4                   	// #4
    1fd4:	d4000001 	svc	#0x0
    1fd8:	d65f03c0 	ret

0000000000001fdc <_utee_open_ta_session>:
_utee_open_ta_session():
/home/davy/research/pynq-tee/amd-zu3-optee/optee_os/lib/libutee/include/utee_syscalls_asm.S:19
    1fdc:	d28000a8 	mov	x8, #0x5                   	// #5
    1fe0:	d4000001 	svc	#0x0
    1fe4:	d65f03c0 	ret

0000000000001fe8 <_utee_close_ta_session>:
_utee_close_ta_session():
/home/davy/research/pynq-tee/amd-zu3-optee/optee_os/lib/libutee/include/utee_syscalls_asm.S:21
    1fe8:	d28000c8 	mov	x8, #0x6                   	// #6
    1fec:	d4000001 	svc	#0x0
    1ff0:	d65f03c0 	ret

0000000000001ff4 <_utee_invoke_ta_command>:
_utee_invoke_ta_command():
/home/davy/research/pynq-tee/amd-zu3-optee/optee_os/lib/libutee/include/utee_syscalls_asm.S:23
    1ff4:	d28000e8 	mov	x8, #0x7                   	// #7
    1ff8:	d4000001 	svc	#0x0
    1ffc:	d65f03c0 	ret

0000000000002000 <_utee_get_cancellation_flag>:
_utee_get_cancellation_flag():
/home/davy/research/pynq-tee/amd-zu3-optee/optee_os/lib/libutee/include/utee_syscalls_asm.S:25
    2000:	d2800128 	mov	x8, #0x9                   	// #9
    2004:	d4000001 	svc	#0x0
    2008:	d65f03c0 	ret

000000000000200c <_utee_check_access_rights>:
_utee_check_access_rights():
/home/davy/research/pynq-tee/amd-zu3-optee/optee_os/lib/libutee/include/utee_syscalls_asm.S:28
    200c:	d2800108 	mov	x8, #0x8                   	// #8
    2010:	d4000001 	svc	#0x0
    2014:	d65f03c0 	ret

0000000000002018 <_utee_unmask_cancellation>:
_utee_unmask_cancellation():
/home/davy/research/pynq-tee/amd-zu3-optee/optee_os/lib/libutee/include/utee_syscalls_asm.S:30
    2018:	d2800148 	mov	x8, #0xa                   	// #10
    201c:	d4000001 	svc	#0x0
    2020:	d65f03c0 	ret

0000000000002024 <_utee_mask_cancellation>:
_utee_mask_cancellation():
/home/davy/research/pynq-tee/amd-zu3-optee/optee_os/lib/libutee/include/utee_syscalls_asm.S:32
    2024:	d2800168 	mov	x8, #0xb                   	// #11
    2028:	d4000001 	svc	#0x0
    202c:	d65f03c0 	ret

0000000000002030 <_utee_wait>:
_utee_wait():
/home/davy/research/pynq-tee/amd-zu3-optee/optee_os/lib/libutee/include/utee_syscalls_asm.S:34
    2030:	d2800188 	mov	x8, #0xc                   	// #12
    2034:	d4000001 	svc	#0x0
    2038:	d65f03c0 	ret

000000000000203c <_utee_get_time>:
_utee_get_time():
/home/davy/research/pynq-tee/amd-zu3-optee/optee_os/lib/libutee/include/utee_syscalls_asm.S:36
    203c:	d28001a8 	mov	x8, #0xd                   	// #13
    2040:	d4000001 	svc	#0x0
    2044:	d65f03c0 	ret

0000000000002048 <_utee_set_ta_time>:
_utee_set_ta_time():
/home/davy/research/pynq-tee/amd-zu3-optee/optee_os/lib/libutee/include/utee_syscalls_asm.S:38
    2048:	d28001c8 	mov	x8, #0xe                   	// #14
    204c:	d4000001 	svc	#0x0
    2050:	d65f03c0 	ret

0000000000002054 <_utee_cryp_state_alloc>:
_utee_cryp_state_alloc():
/home/davy/research/pynq-tee/amd-zu3-optee/optee_os/lib/libutee/include/utee_syscalls_asm.S:40
    2054:	d28001e8 	mov	x8, #0xf                   	// #15
    2058:	d4000001 	svc	#0x0
    205c:	d65f03c0 	ret

0000000000002060 <_utee_cryp_state_copy>:
_utee_cryp_state_copy():
/home/davy/research/pynq-tee/amd-zu3-optee/optee_os/lib/libutee/include/utee_syscalls_asm.S:42
    2060:	d2800208 	mov	x8, #0x10                  	// #16
    2064:	d4000001 	svc	#0x0
    2068:	d65f03c0 	ret

000000000000206c <_utee_cryp_state_free>:
_utee_cryp_state_free():
/home/davy/research/pynq-tee/amd-zu3-optee/optee_os/lib/libutee/include/utee_syscalls_asm.S:44
    206c:	d2800228 	mov	x8, #0x11                  	// #17
    2070:	d4000001 	svc	#0x0
    2074:	d65f03c0 	ret

0000000000002078 <_utee_hash_init>:
_utee_hash_init():
/home/davy/research/pynq-tee/amd-zu3-optee/optee_os/lib/libutee/include/utee_syscalls_asm.S:46
    2078:	d2800248 	mov	x8, #0x12                  	// #18
    207c:	d4000001 	svc	#0x0
    2080:	d65f03c0 	ret

0000000000002084 <_utee_hash_update>:
_utee_hash_update():
/home/davy/research/pynq-tee/amd-zu3-optee/optee_os/lib/libutee/include/utee_syscalls_asm.S:48
    2084:	d2800268 	mov	x8, #0x13                  	// #19
    2088:	d4000001 	svc	#0x0
    208c:	d65f03c0 	ret

0000000000002090 <_utee_hash_final>:
_utee_hash_final():
/home/davy/research/pynq-tee/amd-zu3-optee/optee_os/lib/libutee/include/utee_syscalls_asm.S:50
    2090:	d2800288 	mov	x8, #0x14                  	// #20
    2094:	d4000001 	svc	#0x0
    2098:	d65f03c0 	ret

000000000000209c <_utee_cipher_init>:
_utee_cipher_init():
/home/davy/research/pynq-tee/amd-zu3-optee/optee_os/lib/libutee/include/utee_syscalls_asm.S:52
    209c:	d28002a8 	mov	x8, #0x15                  	// #21
    20a0:	d4000001 	svc	#0x0
    20a4:	d65f03c0 	ret

00000000000020a8 <_utee_cipher_update>:
_utee_cipher_update():
/home/davy/research/pynq-tee/amd-zu3-optee/optee_os/lib/libutee/include/utee_syscalls_asm.S:54
    20a8:	d28002c8 	mov	x8, #0x16                  	// #22
    20ac:	d4000001 	svc	#0x0
    20b0:	d65f03c0 	ret

00000000000020b4 <_utee_cipher_final>:
_utee_cipher_final():
/home/davy/research/pynq-tee/amd-zu3-optee/optee_os/lib/libutee/include/utee_syscalls_asm.S:56
    20b4:	d28002e8 	mov	x8, #0x17                  	// #23
    20b8:	d4000001 	svc	#0x0
    20bc:	d65f03c0 	ret

00000000000020c0 <_utee_cryp_obj_get_info>:
_utee_cryp_obj_get_info():
/home/davy/research/pynq-tee/amd-zu3-optee/optee_os/lib/libutee/include/utee_syscalls_asm.S:58
    20c0:	d2800308 	mov	x8, #0x18                  	// #24
    20c4:	d4000001 	svc	#0x0
    20c8:	d65f03c0 	ret

00000000000020cc <_utee_cryp_obj_restrict_usage>:
_utee_cryp_obj_restrict_usage():
/home/davy/research/pynq-tee/amd-zu3-optee/optee_os/lib/libutee/include/utee_syscalls_asm.S:60
    20cc:	d2800328 	mov	x8, #0x19                  	// #25
    20d0:	d4000001 	svc	#0x0
    20d4:	d65f03c0 	ret

00000000000020d8 <_utee_cryp_obj_get_attr>:
_utee_cryp_obj_get_attr():
/home/davy/research/pynq-tee/amd-zu3-optee/optee_os/lib/libutee/include/utee_syscalls_asm.S:63
    20d8:	d2800348 	mov	x8, #0x1a                  	// #26
    20dc:	d4000001 	svc	#0x0
    20e0:	d65f03c0 	ret

00000000000020e4 <_utee_cryp_obj_alloc>:
_utee_cryp_obj_alloc():
/home/davy/research/pynq-tee/amd-zu3-optee/optee_os/lib/libutee/include/utee_syscalls_asm.S:65
    20e4:	d2800368 	mov	x8, #0x1b                  	// #27
    20e8:	d4000001 	svc	#0x0
    20ec:	d65f03c0 	ret

00000000000020f0 <_utee_cryp_obj_close>:
_utee_cryp_obj_close():
/home/davy/research/pynq-tee/amd-zu3-optee/optee_os/lib/libutee/include/utee_syscalls_asm.S:67
    20f0:	d2800388 	mov	x8, #0x1c                  	// #28
    20f4:	d4000001 	svc	#0x0
    20f8:	d65f03c0 	ret

00000000000020fc <_utee_cryp_obj_reset>:
_utee_cryp_obj_reset():
/home/davy/research/pynq-tee/amd-zu3-optee/optee_os/lib/libutee/include/utee_syscalls_asm.S:69
    20fc:	d28003a8 	mov	x8, #0x1d                  	// #29
    2100:	d4000001 	svc	#0x0
    2104:	d65f03c0 	ret

0000000000002108 <_utee_cryp_obj_populate>:
_utee_cryp_obj_populate():
/home/davy/research/pynq-tee/amd-zu3-optee/optee_os/lib/libutee/include/utee_syscalls_asm.S:71
    2108:	d28003c8 	mov	x8, #0x1e                  	// #30
    210c:	d4000001 	svc	#0x0
    2110:	d65f03c0 	ret

0000000000002114 <_utee_cryp_obj_copy>:
_utee_cryp_obj_copy():
/home/davy/research/pynq-tee/amd-zu3-optee/optee_os/lib/libutee/include/utee_syscalls_asm.S:73
    2114:	d28003e8 	mov	x8, #0x1f                  	// #31
    2118:	d4000001 	svc	#0x0
    211c:	d65f03c0 	ret

0000000000002120 <_utee_cryp_derive_key>:
_utee_cryp_derive_key():
/home/davy/research/pynq-tee/amd-zu3-optee/optee_os/lib/libutee/include/utee_syscalls_asm.S:75
    2120:	d2800408 	mov	x8, #0x20                  	// #32
    2124:	d4000001 	svc	#0x0
    2128:	d65f03c0 	ret

000000000000212c <_utee_cryp_random_number_generate>:
_utee_cryp_random_number_generate():
/home/davy/research/pynq-tee/amd-zu3-optee/optee_os/lib/libutee/include/utee_syscalls_asm.S:77
    212c:	d2800428 	mov	x8, #0x21                  	// #33
    2130:	d4000001 	svc	#0x0
    2134:	d65f03c0 	ret

0000000000002138 <_utee_authenc_init>:
_utee_authenc_init():
/home/davy/research/pynq-tee/amd-zu3-optee/optee_os/lib/libutee/include/utee_syscalls_asm.S:80
    2138:	d2800448 	mov	x8, #0x22                  	// #34
    213c:	d4000001 	svc	#0x0
    2140:	d65f03c0 	ret

0000000000002144 <_utee_authenc_update_aad>:
_utee_authenc_update_aad():
/home/davy/research/pynq-tee/amd-zu3-optee/optee_os/lib/libutee/include/utee_syscalls_asm.S:82
    2144:	d2800468 	mov	x8, #0x23                  	// #35
    2148:	d4000001 	svc	#0x0
    214c:	d65f03c0 	ret

0000000000002150 <_utee_authenc_update_payload>:
_utee_authenc_update_payload():
/home/davy/research/pynq-tee/amd-zu3-optee/optee_os/lib/libutee/include/utee_syscalls_asm.S:84
    2150:	d2800488 	mov	x8, #0x24                  	// #36
    2154:	d4000001 	svc	#0x0
    2158:	d65f03c0 	ret

000000000000215c <_utee_authenc_enc_final>:
_utee_authenc_enc_final():
/home/davy/research/pynq-tee/amd-zu3-optee/optee_os/lib/libutee/include/utee_syscalls_asm.S:87
    215c:	d28004a8 	mov	x8, #0x25                  	// #37
    2160:	d4000001 	svc	#0x0
    2164:	d65f03c0 	ret

0000000000002168 <_utee_authenc_dec_final>:
_utee_authenc_dec_final():
/home/davy/research/pynq-tee/amd-zu3-optee/optee_os/lib/libutee/include/utee_syscalls_asm.S:89
    2168:	d28004c8 	mov	x8, #0x26                  	// #38
    216c:	d4000001 	svc	#0x0
    2170:	d65f03c0 	ret

0000000000002174 <_utee_asymm_operate>:
_utee_asymm_operate():
/home/davy/research/pynq-tee/amd-zu3-optee/optee_os/lib/libutee/include/utee_syscalls_asm.S:91
    2174:	d28004e8 	mov	x8, #0x27                  	// #39
    2178:	d4000001 	svc	#0x0
    217c:	d65f03c0 	ret

0000000000002180 <_utee_asymm_verify>:
_utee_asymm_verify():
/home/davy/research/pynq-tee/amd-zu3-optee/optee_os/lib/libutee/include/utee_syscalls_asm.S:93
    2180:	d2800508 	mov	x8, #0x28                  	// #40
    2184:	d4000001 	svc	#0x0
    2188:	d65f03c0 	ret

000000000000218c <_utee_storage_obj_open>:
_utee_storage_obj_open():
/home/davy/research/pynq-tee/amd-zu3-optee/optee_os/lib/libutee/include/utee_syscalls_asm.S:95
    218c:	d2800528 	mov	x8, #0x29                  	// #41
    2190:	d4000001 	svc	#0x0
    2194:	d65f03c0 	ret

0000000000002198 <_utee_storage_obj_create>:
_utee_storage_obj_create():
/home/davy/research/pynq-tee/amd-zu3-optee/optee_os/lib/libutee/include/utee_syscalls_asm.S:97
    2198:	d2800548 	mov	x8, #0x2a                  	// #42
    219c:	d4000001 	svc	#0x0
    21a0:	d65f03c0 	ret

00000000000021a4 <_utee_storage_obj_del>:
_utee_storage_obj_del():
/home/davy/research/pynq-tee/amd-zu3-optee/optee_os/lib/libutee/include/utee_syscalls_asm.S:99
    21a4:	d2800568 	mov	x8, #0x2b                  	// #43
    21a8:	d4000001 	svc	#0x0
    21ac:	d65f03c0 	ret

00000000000021b0 <_utee_storage_obj_rename>:
_utee_storage_obj_rename():
/home/davy/research/pynq-tee/amd-zu3-optee/optee_os/lib/libutee/include/utee_syscalls_asm.S:101
    21b0:	d2800588 	mov	x8, #0x2c                  	// #44
    21b4:	d4000001 	svc	#0x0
    21b8:	d65f03c0 	ret

00000000000021bc <_utee_storage_alloc_enum>:
_utee_storage_alloc_enum():
/home/davy/research/pynq-tee/amd-zu3-optee/optee_os/lib/libutee/include/utee_syscalls_asm.S:103
    21bc:	d28005a8 	mov	x8, #0x2d                  	// #45
    21c0:	d4000001 	svc	#0x0
    21c4:	d65f03c0 	ret

00000000000021c8 <_utee_storage_free_enum>:
_utee_storage_free_enum():
/home/davy/research/pynq-tee/amd-zu3-optee/optee_os/lib/libutee/include/utee_syscalls_asm.S:105
    21c8:	d28005c8 	mov	x8, #0x2e                  	// #46
    21cc:	d4000001 	svc	#0x0
    21d0:	d65f03c0 	ret

00000000000021d4 <_utee_storage_reset_enum>:
_utee_storage_reset_enum():
/home/davy/research/pynq-tee/amd-zu3-optee/optee_os/lib/libutee/include/utee_syscalls_asm.S:107
    21d4:	d28005e8 	mov	x8, #0x2f                  	// #47
    21d8:	d4000001 	svc	#0x0
    21dc:	d65f03c0 	ret

00000000000021e0 <_utee_storage_start_enum>:
_utee_storage_start_enum():
/home/davy/research/pynq-tee/amd-zu3-optee/optee_os/lib/libutee/include/utee_syscalls_asm.S:109
    21e0:	d2800608 	mov	x8, #0x30                  	// #48
    21e4:	d4000001 	svc	#0x0
    21e8:	d65f03c0 	ret

00000000000021ec <_utee_storage_next_enum>:
_utee_storage_next_enum():
/home/davy/research/pynq-tee/amd-zu3-optee/optee_os/lib/libutee/include/utee_syscalls_asm.S:111
    21ec:	d2800628 	mov	x8, #0x31                  	// #49
    21f0:	d4000001 	svc	#0x0
    21f4:	d65f03c0 	ret

00000000000021f8 <_utee_storage_obj_read>:
_utee_storage_obj_read():
/home/davy/research/pynq-tee/amd-zu3-optee/optee_os/lib/libutee/include/utee_syscalls_asm.S:113
    21f8:	d2800648 	mov	x8, #0x32                  	// #50
    21fc:	d4000001 	svc	#0x0
    2200:	d65f03c0 	ret

0000000000002204 <_utee_storage_obj_write>:
_utee_storage_obj_write():
/home/davy/research/pynq-tee/amd-zu3-optee/optee_os/lib/libutee/include/utee_syscalls_asm.S:115
    2204:	d2800668 	mov	x8, #0x33                  	// #51
    2208:	d4000001 	svc	#0x0
    220c:	d65f03c0 	ret

0000000000002210 <_utee_storage_obj_trunc>:
_utee_storage_obj_trunc():
/home/davy/research/pynq-tee/amd-zu3-optee/optee_os/lib/libutee/include/utee_syscalls_asm.S:117
    2210:	d2800688 	mov	x8, #0x34                  	// #52
    2214:	d4000001 	svc	#0x0
    2218:	d65f03c0 	ret

000000000000221c <_utee_storage_obj_seek>:
_utee_storage_obj_seek():
/home/davy/research/pynq-tee/amd-zu3-optee/optee_os/lib/libutee/include/utee_syscalls_asm.S:119
    221c:	d28006a8 	mov	x8, #0x35                  	// #53
    2220:	d4000001 	svc	#0x0
    2224:	d65f03c0 	ret

0000000000002228 <_utee_cryp_obj_generate_key>:
_utee_cryp_obj_generate_key():
/home/davy/research/pynq-tee/amd-zu3-optee/optee_os/lib/libutee/include/utee_syscalls_asm.S:121
    2228:	d28006c8 	mov	x8, #0x36                  	// #54
    222c:	d4000001 	svc	#0x0
    2230:	d65f03c0 	ret

0000000000002234 <_utee_cache_operation>:
_utee_cache_operation():
/home/davy/research/pynq-tee/amd-zu3-optee/optee_os/lib/libutee/include/utee_syscalls_asm.S:124
    2234:	d28008c8 	mov	x8, #0x46                  	// #70
    2238:	d4000001 	svc	#0x0
    223c:	d65f03c0 	ret

0000000000002240 <abort>:
abort():
/home/davy/research/pynq-tee/amd-zu3-optee/optee_os/lib/libutee/abort.c:12
    2240:	a9bf7bfd 	stp	x29, x30, [sp, #-16]!
/home/davy/research/pynq-tee/amd-zu3-optee/optee_os/lib/libutee/abort.c:13
    2244:	d0000060 	adrp	x0, 10000 <gcd_pairs+0x90>
    2248:	9105a000 	add	x0, x0, #0x168
/home/davy/research/pynq-tee/amd-zu3-optee/optee_os/lib/libutee/abort.c:12
    224c:	910003fd 	mov	x29, sp
/home/davy/research/pynq-tee/amd-zu3-optee/optee_os/lib/libutee/abort.c:13
    2250:	97fffcb6 	bl	1528 <puts>
/home/davy/research/pynq-tee/amd-zu3-optee/optee_os/lib/libutee/abort.c:14
    2254:	d2800000 	mov	x0, #0x0                   	// #0
    2258:	97ffff4f 	bl	1f94 <_utee_panic>
/home/davy/research/pynq-tee/amd-zu3-optee/optee_os/lib/libutee/abort.c:16
    225c:	14000000 	b	225c <abort+0x1c>

0000000000002260 <copy_param>:
copy_param():
/home/davy/research/pynq-tee/amd-zu3-optee/optee_os/lib/libutee/tee_api.c:43
    2260:	2a0103e3 	mov	w3, w1
    2264:	52800004 	mov	w4, #0x0                   	// #0
    2268:	f8008403 	str	x3, [x0], #8
/home/davy/research/pynq-tee/amd-zu3-optee/optee_os/lib/libutee/tee_api.c:45
    226c:	1ac42425 	lsr	w5, w1, w4
    2270:	12000ca3 	and	w3, w5, #0xf
    2274:	71000c7f 	cmp	w3, #0x3
    2278:	540001a0 	b.eq	22ac <copy_param+0x4c>  // b.none
    227c:	721e04bf 	tst	w5, #0xc
    2280:	540000c1 	b.ne	2298 <copy_param+0x38>  // b.any
    2284:	7100047f 	cmp	w3, #0x1
    2288:	54000120 	b.eq	22ac <copy_param+0x4c>  // b.none
    228c:	d2800005 	mov	x5, #0x0                   	// #0
    2290:	d2800003 	mov	x3, #0x0                   	// #0
    2294:	14000007 	b	22b0 <copy_param+0x50>
    2298:	51001463 	sub	w3, w3, #0x5
    229c:	7100087f 	cmp	w3, #0x2
    22a0:	54ffff68 	b.hi	228c <copy_param+0x2c>  // b.pmore
/home/davy/research/pynq-tee/amd-zu3-optee/optee_os/lib/libutee/tee_api.c:55
    22a4:	a9401443 	ldp	x3, x5, [x2]
/home/davy/research/pynq-tee/amd-zu3-optee/optee_os/lib/libutee/tee_api.c:56
    22a8:	14000002 	b	22b0 <copy_param+0x50>
/home/davy/research/pynq-tee/amd-zu3-optee/optee_os/lib/libutee/tee_api.c:49
    22ac:	29401443 	ldp	w3, w5, [x2]
/home/davy/research/pynq-tee/amd-zu3-optee/optee_os/lib/libutee/tee_api.c:44 (discriminator 1)
    22b0:	11001084 	add	w4, w4, #0x4
/home/davy/research/pynq-tee/amd-zu3-optee/optee_os/lib/libutee/tee_api.c:61
    22b4:	a8811403 	stp	x3, x5, [x0], #16
/home/davy/research/pynq-tee/amd-zu3-optee/optee_os/lib/libutee/tee_api.c:44 (discriminator 1)
    22b8:	91004042 	add	x2, x2, #0x10
    22bc:	7100409f 	cmp	w4, #0x10
    22c0:	54fffd61 	b.ne	226c <copy_param+0xc>  // b.any
/home/davy/research/pynq-tee/amd-zu3-optee/optee_os/lib/libutee/tee_api.c:64
    22c4:	d65f03c0 	ret

00000000000022c8 <copy_gp11_param>:
copy_gp11_param():
/home/davy/research/pynq-tee/amd-zu3-optee/optee_os/lib/libutee/tee_api.c:73
    22c8:	2a0103e3 	mov	w3, w1
    22cc:	52800004 	mov	w4, #0x0                   	// #0
    22d0:	f8008403 	str	x3, [x0], #8
/home/davy/research/pynq-tee/amd-zu3-optee/optee_os/lib/libutee/tee_api.c:75
    22d4:	1ac42425 	lsr	w5, w1, w4
    22d8:	12000ca3 	and	w3, w5, #0xf
    22dc:	71000c7f 	cmp	w3, #0x3
    22e0:	540001c0 	b.eq	2318 <copy_gp11_param+0x50>  // b.none
    22e4:	721e04bf 	tst	w5, #0xc
    22e8:	540000c1 	b.ne	2300 <copy_gp11_param+0x38>  // b.any
    22ec:	7100047f 	cmp	w3, #0x1
    22f0:	54000140 	b.eq	2318 <copy_gp11_param+0x50>  // b.none
    22f4:	d2800005 	mov	x5, #0x0                   	// #0
    22f8:	d2800003 	mov	x3, #0x0                   	// #0
    22fc:	14000008 	b	231c <copy_gp11_param+0x54>
    2300:	51001463 	sub	w3, w3, #0x5
    2304:	7100087f 	cmp	w3, #0x2
    2308:	54ffff68 	b.hi	22f4 <copy_gp11_param+0x2c>  // b.pmore
/home/davy/research/pynq-tee/amd-zu3-optee/optee_os/lib/libutee/tee_api.c:84
    230c:	f9400043 	ldr	x3, [x2]
/home/davy/research/pynq-tee/amd-zu3-optee/optee_os/lib/libutee/tee_api.c:85
    2310:	b9400845 	ldr	w5, [x2, #8]
/home/davy/research/pynq-tee/amd-zu3-optee/optee_os/lib/libutee/tee_api.c:86
    2314:	14000002 	b	231c <copy_gp11_param+0x54>
/home/davy/research/pynq-tee/amd-zu3-optee/optee_os/lib/libutee/tee_api.c:79
    2318:	29401443 	ldp	w3, w5, [x2]
/home/davy/research/pynq-tee/amd-zu3-optee/optee_os/lib/libutee/tee_api.c:74 (discriminator 1)
    231c:	11001084 	add	w4, w4, #0x4
/home/davy/research/pynq-tee/amd-zu3-optee/optee_os/lib/libutee/tee_api.c:91
    2320:	a8811403 	stp	x3, x5, [x0], #16
/home/davy/research/pynq-tee/amd-zu3-optee/optee_os/lib/libutee/tee_api.c:74 (discriminator 1)
    2324:	91004042 	add	x2, x2, #0x10
    2328:	7100409f 	cmp	w4, #0x10
    232c:	54fffd41 	b.ne	22d4 <copy_gp11_param+0xc>  // b.any
/home/davy/research/pynq-tee/amd-zu3-optee/optee_os/lib/libutee/tee_api.c:94
    2330:	d65f03c0 	ret

0000000000002334 <check_mem_access_rights_params>:
check_mem_access_rights_params():
/home/davy/research/pynq-tee/amd-zu3-optee/optee_os/lib/libutee/tee_api.c:261
    2334:	90000083 	adrp	x3, 12000 <_DYNAMIC>
bufs_intersect():
/home/davy/research/pynq-tee/amd-zu3-optee/optee_os/lib/libutee/tee_api.c:244
    2338:	f100005f 	cmp	x2, #0x0
/home/davy/research/pynq-tee/amd-zu3-optee/optee_os/lib/libutee/tee_api.c:241
    233c:	d1000442 	sub	x2, x2, #0x1
/home/davy/research/pynq-tee/amd-zu3-optee/optee_os/lib/libutee/tee_api.c:244
    2340:	1a9f17e9 	cset	w9, eq	// eq = none
check_mem_access_rights_params():
/home/davy/research/pynq-tee/amd-zu3-optee/optee_os/lib/libutee/tee_api.c:261
    2344:	f940d064 	ldr	x4, [x3, #416]
bufs_intersect():
/home/davy/research/pynq-tee/amd-zu3-optee/optee_os/lib/libutee/tee_api.c:241
    2348:	8b010042 	add	x2, x2, x1
    234c:	f940e063 	ldr	x3, [x3, #448]
/home/davy/research/pynq-tee/amd-zu3-optee/optee_os/lib/libutee/tee_api.c:244
    2350:	52800005 	mov	w5, #0x0                   	// #0
check_mem_access_rights_params():
/home/davy/research/pynq-tee/amd-zu3-optee/optee_os/lib/libutee/tee_api.c:261
    2354:	b9400088 	ldr	w8, [x4]
    2358:	1ac52504 	lsr	w4, w8, w5
    235c:	12000c84 	and	w4, w4, #0xf
    2360:	7100149f 	cmp	w4, #0x5
    2364:	54000300 	b.eq	23c4 <check_mem_access_rights_params+0x90>  // b.none
    2368:	51001884 	sub	w4, w4, #0x6
    236c:	7100049f 	cmp	w4, #0x1
    2370:	540001e8 	b.hi	23ac <check_mem_access_rights_params+0x78>  // b.pmore
    2374:	528000c6 	mov	w6, #0x6                   	// #6
/home/davy/research/pynq-tee/amd-zu3-optee/optee_os/lib/libutee/tee_api.c:268
    2378:	f9400464 	ldr	x4, [x3, #8]
bufs_intersect():
/home/davy/research/pynq-tee/amd-zu3-optee/optee_os/lib/libutee/tee_api.c:244
    237c:	f100009f 	cmp	x4, #0x0
    2380:	7a401920 	ccmp	w9, #0x0, #0x0, ne	// ne = any
    2384:	54000141 	b.ne	23ac <check_mem_access_rights_params+0x78>  // b.any
/home/davy/research/pynq-tee/amd-zu3-optee/optee_os/lib/libutee/tee_api.c:240
    2388:	f9400067 	ldr	x7, [x3]
/home/davy/research/pynq-tee/amd-zu3-optee/optee_os/lib/libutee/tee_api.c:242
    238c:	d1000484 	sub	x4, x4, #0x1
    2390:	8b070084 	add	x4, x4, x7
/home/davy/research/pynq-tee/amd-zu3-optee/optee_os/lib/libutee/tee_api.c:247
    2394:	eb0200ff 	cmp	x7, x2
    2398:	fa449022 	ccmp	x1, x4, #0x2, ls	// ls = plast
    239c:	54000088 	b.hi	23ac <check_mem_access_rights_params+0x78>  // b.pmore
check_mem_access_rights_params():
/home/davy/research/pynq-tee/amd-zu3-optee/optee_os/lib/libutee/tee_api.c:267
    23a0:	320000c6 	orr	w6, w6, #0x1
/home/davy/research/pynq-tee/amd-zu3-optee/optee_os/lib/libutee/tee_api.c:271
    23a4:	6a26001f 	bics	wzr, w0, w6
    23a8:	54000121 	b.ne	23cc <check_mem_access_rights_params+0x98>  // b.any
/home/davy/research/pynq-tee/amd-zu3-optee/optee_os/lib/libutee/tee_api.c:258 (discriminator 1)
    23ac:	110010a5 	add	w5, w5, #0x4
    23b0:	91004063 	add	x3, x3, #0x10
    23b4:	710040bf 	cmp	w5, #0x10
    23b8:	54fffd01 	b.ne	2358 <check_mem_access_rights_params+0x24>  // b.any
/home/davy/research/pynq-tee/amd-zu3-optee/optee_os/lib/libutee/tee_api.c:280
    23bc:	52800000 	mov	w0, #0x0                   	// #0
/home/davy/research/pynq-tee/amd-zu3-optee/optee_os/lib/libutee/tee_api.c:281
    23c0:	d65f03c0 	ret
/home/davy/research/pynq-tee/amd-zu3-optee/optee_os/lib/libutee/tee_api.c:259
    23c4:	52800086 	mov	w6, #0x4                   	// #4
    23c8:	17ffffec 	b	2378 <check_mem_access_rights_params+0x44>
/home/davy/research/pynq-tee/amd-zu3-optee/optee_os/lib/libutee/tee_api.c:272
    23cc:	129fffc0 	mov	w0, #0xffff0001            	// #-65535
    23d0:	17fffffc 	b	23c0 <check_mem_access_rights_params+0x8c>

00000000000023d4 <buf_overlaps_no_share_heap>:
buf_overlaps_no_share_heap():
/home/davy/research/pynq-tee/amd-zu3-optee/optee_os/lib/libutee/tee_api.c:284
    23d4:	aa0003e3 	mov	x3, x0
/home/davy/research/pynq-tee/amd-zu3-optee/optee_os/lib/libutee/tee_api.c:285
    23d8:	90000080 	adrp	x0, 12000 <_DYNAMIC>
/home/davy/research/pynq-tee/amd-zu3-optee/optee_os/lib/libutee/tee_api.c:284
    23dc:	aa0103e2 	mov	x2, x1
/home/davy/research/pynq-tee/amd-zu3-optee/optee_os/lib/libutee/tee_api.c:285
    23e0:	f940d800 	ldr	x0, [x0, #432]
    23e4:	f9400000 	ldr	x0, [x0]
/home/davy/research/pynq-tee/amd-zu3-optee/optee_os/lib/libutee/tee_api.c:287
    23e8:	b4000060 	cbz	x0, 23f4 <buf_overlaps_no_share_heap+0x20>
/home/davy/research/pynq-tee/amd-zu3-optee/optee_os/lib/libutee/tee_api.c:287 (discriminator 1)
    23ec:	aa0303e1 	mov	x1, x3
    23f0:	140028c4 	b	c700 <raw_malloc_buffer_overlaps_heap>
/home/davy/research/pynq-tee/amd-zu3-optee/optee_os/lib/libutee/tee_api.c:288
    23f4:	52800000 	mov	w0, #0x0                   	// #0
    23f8:	d65f03c0 	ret

00000000000023fc <check_invoke_param>:
check_invoke_param():
/home/davy/research/pynq-tee/amd-zu3-optee/optee_os/lib/libutee/tee_api.c:291
    23fc:	a9bc7bfd 	stp	x29, x30, [sp, #-64]!
    2400:	910003fd 	mov	x29, sp
    2404:	a90153f3 	stp	x19, x20, [sp, #16]
    2408:	aa0103f3 	mov	x19, x1
    240c:	52800014 	mov	w20, #0x0                   	// #0
    2410:	a9025bf5 	stp	x21, x22, [sp, #32]
    2414:	2a0003f5 	mov	w21, w0
    2418:	f9001bf7 	str	x23, [sp, #48]
/home/davy/research/pynq-tee/amd-zu3-optee/optee_os/lib/libutee/tee_api.c:299
    241c:	1ad426a1 	lsr	w1, w21, w20
    2420:	12000c21 	and	w1, w1, #0xf
    2424:	7100143f 	cmp	w1, #0x5
    2428:	54000380 	b.eq	2498 <check_invoke_param+0x9c>  // b.none
    242c:	51001821 	sub	w1, w1, #0x6
    2430:	7100043f 	cmp	w1, #0x1
    2434:	54000208 	b.hi	2474 <check_invoke_param+0x78>  // b.pmore
    2438:	528000c0 	mov	w0, #0x6                   	// #6
/home/davy/research/pynq-tee/amd-zu3-optee/optee_os/lib/libutee/tee_api.c:297
    243c:	a9405e76 	ldp	x22, x23, [x19]
/home/davy/research/pynq-tee/amd-zu3-optee/optee_os/lib/libutee/tee_api.c:306
    2440:	32000000 	orr	w0, w0, #0x1
    2444:	aa1703e2 	mov	x2, x23
    2448:	aa1603e1 	mov	x1, x22
    244c:	97ffffba 	bl	2334 <check_mem_access_rights_params>
/home/davy/research/pynq-tee/amd-zu3-optee/optee_os/lib/libutee/tee_api.c:306 (discriminator 1)
    2450:	34000060 	cbz	w0, 245c <check_invoke_param+0x60>
/home/davy/research/pynq-tee/amd-zu3-optee/optee_os/lib/libutee/tee_api.c:307
    2454:	52800000 	mov	w0, #0x0                   	// #0
    2458:	94000c46 	bl	5570 <TEE_Panic>
/home/davy/research/pynq-tee/amd-zu3-optee/optee_os/lib/libutee/tee_api.c:308
    245c:	aa1703e1 	mov	x1, x23
    2460:	aa1603e0 	mov	x0, x22
    2464:	97ffffdc 	bl	23d4 <buf_overlaps_no_share_heap>
/home/davy/research/pynq-tee/amd-zu3-optee/optee_os/lib/libutee/tee_api.c:308 (discriminator 1)
    2468:	36000060 	tbz	w0, #0, 2474 <check_invoke_param+0x78>
/home/davy/research/pynq-tee/amd-zu3-optee/optee_os/lib/libutee/tee_api.c:309
    246c:	52800000 	mov	w0, #0x0                   	// #0
    2470:	94000c40 	bl	5570 <TEE_Panic>
/home/davy/research/pynq-tee/amd-zu3-optee/optee_os/lib/libutee/tee_api.c:294 (discriminator 1)
    2474:	11001294 	add	w20, w20, #0x4
    2478:	91004273 	add	x19, x19, #0x10
    247c:	7100429f 	cmp	w20, #0x10
    2480:	54fffce1 	b.ne	241c <check_invoke_param+0x20>  // b.any
/home/davy/research/pynq-tee/amd-zu3-optee/optee_os/lib/libutee/tee_api.c:315
    2484:	f9401bf7 	ldr	x23, [sp, #48]
    2488:	a94153f3 	ldp	x19, x20, [sp, #16]
    248c:	a9425bf5 	ldp	x21, x22, [sp, #32]
    2490:	a8c47bfd 	ldp	x29, x30, [sp], #64
    2494:	d65f03c0 	ret
/home/davy/research/pynq-tee/amd-zu3-optee/optee_os/lib/libutee/tee_api.c:295
    2498:	52800080 	mov	w0, #0x4                   	// #4
    249c:	17ffffe8 	b	243c <check_invoke_param+0x40>

00000000000024a0 <update_out_param>:
update_out_param():
/home/davy/research/pynq-tee/amd-zu3-optee/optee_os/lib/libutee/tee_api.c:180
    24a0:	a9bc7bfd 	stp	x29, x30, [sp, #-64]!
    24a4:	910003fd 	mov	x29, sp
    24a8:	a90153f3 	stp	x19, x20, [sp, #16]
/home/davy/research/pynq-tee/amd-zu3-optee/optee_os/lib/libutee/tee_api.c:182
    24ac:	aa0203f4 	mov	x20, x2
    24b0:	aa0003f3 	mov	x19, x0
/home/davy/research/pynq-tee/amd-zu3-optee/optee_os/lib/libutee/tee_api.c:180
    24b4:	a9025bf5 	stp	x21, x22, [sp, #32]
/home/davy/research/pynq-tee/amd-zu3-optee/optee_os/lib/libutee/tee_api.c:184
    24b8:	d2800015 	mov	x21, #0x0                   	// #0
/home/davy/research/pynq-tee/amd-zu3-optee/optee_os/lib/libutee/tee_api.c:180
    24bc:	a90363f7 	stp	x23, x24, [sp, #48]
    24c0:	aa0103f8 	mov	x24, x1
/home/davy/research/pynq-tee/amd-zu3-optee/optee_os/lib/libutee/tee_api.c:182
    24c4:	f8408697 	ldr	x23, [x20], #8
/home/davy/research/pynq-tee/amd-zu3-optee/optee_os/lib/libutee/tee_api.c:188
    24c8:	531e76a3 	lsl	w3, w21, #2
/home/davy/research/pynq-tee/amd-zu3-optee/optee_os/lib/libutee/tee_api.c:186
    24cc:	f9400696 	ldr	x22, [x20, #8]
/home/davy/research/pynq-tee/amd-zu3-optee/optee_os/lib/libutee/tee_api.c:188
    24d0:	1ac326e3 	lsr	w3, w23, w3
    24d4:	721e047f 	tst	w3, #0xc
    24d8:	540001a1 	b.ne	250c <update_out_param+0x6c>  // b.any
    24dc:	721f087f 	tst	w3, #0xe
    24e0:	540002e1 	b.ne	253c <update_out_param+0x9c>  // b.any
/home/davy/research/pynq-tee/amd-zu3-optee/optee_os/lib/libutee/tee_api.c:184 (discriminator 2)
    24e4:	910006b5 	add	x21, x21, #0x1
/home/davy/research/pynq-tee/amd-zu3-optee/optee_os/lib/libutee/tee_api.c:184 (discriminator 1)
    24e8:	91004294 	add	x20, x20, #0x10
    24ec:	91004273 	add	x19, x19, #0x10
    24f0:	f10012bf 	cmp	x21, #0x4
    24f4:	54fffea1 	b.ne	24c8 <update_out_param+0x28>  // b.any
/home/davy/research/pynq-tee/amd-zu3-optee/optee_os/lib/libutee/tee_api.c:205
    24f8:	a94153f3 	ldp	x19, x20, [sp, #16]
    24fc:	a9425bf5 	ldp	x21, x22, [sp, #32]
    2500:	a94363f7 	ldp	x23, x24, [sp, #48]
    2504:	a8c47bfd 	ldp	x29, x30, [sp], #64
    2508:	d65f03c0 	ret
/home/davy/research/pynq-tee/amd-zu3-optee/optee_os/lib/libutee/tee_api.c:188
    250c:	12000c63 	and	w3, w3, #0xf
    2510:	51001863 	sub	w3, w3, #0x6
    2514:	7100047f 	cmp	w3, #0x1
    2518:	54fffe68 	b.hi	24e4 <update_out_param+0x44>  // b.pmore
/home/davy/research/pynq-tee/amd-zu3-optee/optee_os/lib/libutee/tee_api.c:196
    251c:	f8757b01 	ldr	x1, [x24, x21, lsl #3]
    2520:	b40000a1 	cbz	x1, 2534 <update_out_param+0x94>
/home/davy/research/pynq-tee/amd-zu3-optee/optee_os/lib/libutee/tee_api.c:197
    2524:	a9400a60 	ldp	x0, x2, [x19]
/home/davy/research/pynq-tee/amd-zu3-optee/optee_os/lib/libutee/tee_api.c:198
    2528:	eb16005f 	cmp	x2, x22
/home/davy/research/pynq-tee/amd-zu3-optee/optee_os/lib/libutee/tee_api.c:197
    252c:	9a969042 	csel	x2, x2, x22, ls	// ls = plast
    2530:	97fff6b4 	bl	0 <memcpy>
/home/davy/research/pynq-tee/amd-zu3-optee/optee_os/lib/libutee/tee_api.c:199
    2534:	f9000676 	str	x22, [x19, #8]
/home/davy/research/pynq-tee/amd-zu3-optee/optee_os/lib/libutee/tee_api.c:200
    2538:	17ffffeb 	b	24e4 <update_out_param+0x44>
/home/davy/research/pynq-tee/amd-zu3-optee/optee_os/lib/libutee/tee_api.c:191
    253c:	f9400280 	ldr	x0, [x20]
    2540:	29005a60 	stp	w0, w22, [x19]
/home/davy/research/pynq-tee/amd-zu3-optee/optee_os/lib/libutee/tee_api.c:193
    2544:	17ffffe8 	b	24e4 <update_out_param+0x44>

0000000000002548 <update_out_gp11_param>:
update_out_gp11_param():
/home/davy/research/pynq-tee/amd-zu3-optee/optee_os/lib/libutee/tee_api.c:210
    2548:	a9bc7bfd 	stp	x29, x30, [sp, #-64]!
    254c:	910003fd 	mov	x29, sp
    2550:	a90153f3 	stp	x19, x20, [sp, #16]
/home/davy/research/pynq-tee/amd-zu3-optee/optee_os/lib/libutee/tee_api.c:212
    2554:	aa0203f4 	mov	x20, x2
    2558:	aa0003f3 	mov	x19, x0
/home/davy/research/pynq-tee/amd-zu3-optee/optee_os/lib/libutee/tee_api.c:210
    255c:	a9025bf5 	stp	x21, x22, [sp, #32]
/home/davy/research/pynq-tee/amd-zu3-optee/optee_os/lib/libutee/tee_api.c:214
    2560:	d2800015 	mov	x21, #0x0                   	// #0
/home/davy/research/pynq-tee/amd-zu3-optee/optee_os/lib/libutee/tee_api.c:210
    2564:	a90363f7 	stp	x23, x24, [sp, #48]
    2568:	aa0103f8 	mov	x24, x1
/home/davy/research/pynq-tee/amd-zu3-optee/optee_os/lib/libutee/tee_api.c:212
    256c:	f8408697 	ldr	x23, [x20], #8
/home/davy/research/pynq-tee/amd-zu3-optee/optee_os/lib/libutee/tee_api.c:218
    2570:	531e76a3 	lsl	w3, w21, #2
/home/davy/research/pynq-tee/amd-zu3-optee/optee_os/lib/libutee/tee_api.c:216
    2574:	f9400696 	ldr	x22, [x20, #8]
/home/davy/research/pynq-tee/amd-zu3-optee/optee_os/lib/libutee/tee_api.c:218
    2578:	1ac326e3 	lsr	w3, w23, w3
    257c:	721e047f 	tst	w3, #0xc
    2580:	540001a1 	b.ne	25b4 <update_out_gp11_param+0x6c>  // b.any
    2584:	721f087f 	tst	w3, #0xe
    2588:	54000301 	b.ne	25e8 <update_out_gp11_param+0xa0>  // b.any
/home/davy/research/pynq-tee/amd-zu3-optee/optee_os/lib/libutee/tee_api.c:214 (discriminator 2)
    258c:	910006b5 	add	x21, x21, #0x1
/home/davy/research/pynq-tee/amd-zu3-optee/optee_os/lib/libutee/tee_api.c:214 (discriminator 1)
    2590:	91004294 	add	x20, x20, #0x10
    2594:	91004273 	add	x19, x19, #0x10
    2598:	f10012bf 	cmp	x21, #0x4
    259c:	54fffea1 	b.ne	2570 <update_out_gp11_param+0x28>  // b.any
/home/davy/research/pynq-tee/amd-zu3-optee/optee_os/lib/libutee/tee_api.c:235
    25a0:	a94153f3 	ldp	x19, x20, [sp, #16]
    25a4:	a9425bf5 	ldp	x21, x22, [sp, #32]
    25a8:	a94363f7 	ldp	x23, x24, [sp, #48]
    25ac:	a8c47bfd 	ldp	x29, x30, [sp], #64
    25b0:	d65f03c0 	ret
/home/davy/research/pynq-tee/amd-zu3-optee/optee_os/lib/libutee/tee_api.c:218
    25b4:	12000c63 	and	w3, w3, #0xf
    25b8:	51001863 	sub	w3, w3, #0x6
    25bc:	7100047f 	cmp	w3, #0x1
    25c0:	54fffe68 	b.hi	258c <update_out_gp11_param+0x44>  // b.pmore
/home/davy/research/pynq-tee/amd-zu3-optee/optee_os/lib/libutee/tee_api.c:226
    25c4:	f8757b01 	ldr	x1, [x24, x21, lsl #3]
    25c8:	b40000c1 	cbz	x1, 25e0 <update_out_gp11_param+0x98>
/home/davy/research/pynq-tee/amd-zu3-optee/optee_os/lib/libutee/tee_api.c:228
    25cc:	b9400a62 	ldr	w2, [x19, #8]
/home/davy/research/pynq-tee/amd-zu3-optee/optee_os/lib/libutee/tee_api.c:227
    25d0:	f9400260 	ldr	x0, [x19]
/home/davy/research/pynq-tee/amd-zu3-optee/optee_os/lib/libutee/tee_api.c:228
    25d4:	eb16005f 	cmp	x2, x22
/home/davy/research/pynq-tee/amd-zu3-optee/optee_os/lib/libutee/tee_api.c:227
    25d8:	9a969042 	csel	x2, x2, x22, ls	// ls = plast
    25dc:	97fff689 	bl	0 <memcpy>
/home/davy/research/pynq-tee/amd-zu3-optee/optee_os/lib/libutee/tee_api.c:229
    25e0:	b9000a76 	str	w22, [x19, #8]
/home/davy/research/pynq-tee/amd-zu3-optee/optee_os/lib/libutee/tee_api.c:230
    25e4:	17ffffea 	b	258c <update_out_gp11_param+0x44>
/home/davy/research/pynq-tee/amd-zu3-optee/optee_os/lib/libutee/tee_api.c:221
    25e8:	f9400280 	ldr	x0, [x20]
    25ec:	29005a60 	stp	w0, w22, [x19]
/home/davy/research/pynq-tee/amd-zu3-optee/optee_os/lib/libutee/tee_api.c:223
    25f0:	17ffffe7 	b	258c <update_out_gp11_param+0x44>

00000000000025f4 <TEE_CloseTASession>:
TEE_CloseTASession():
/home/davy/research/pynq-tee/amd-zu3-optee/optee_os/lib/libutee/tee_api.c:415
    25f4:	b4000120 	cbz	x0, 2618 <TEE_CloseTASession+0x24>
/home/davy/research/pynq-tee/amd-zu3-optee/optee_os/lib/libutee/tee_api.c:414
    25f8:	a9bf7bfd 	stp	x29, x30, [sp, #-16]!
    25fc:	910003fd 	mov	x29, sp
/home/davy/research/pynq-tee/amd-zu3-optee/optee_os/lib/libutee/tee_api.c:416
    2600:	97fffe7a 	bl	1fe8 <_utee_close_ta_session>
/home/davy/research/pynq-tee/amd-zu3-optee/optee_os/lib/libutee/tee_api.c:418
    2604:	34000060 	cbz	w0, 2610 <TEE_CloseTASession+0x1c>
/home/davy/research/pynq-tee/amd-zu3-optee/optee_os/lib/libutee/tee_api.c:421
    2608:	a8c17bfd 	ldp	x29, x30, [sp], #16
/home/davy/research/pynq-tee/amd-zu3-optee/optee_os/lib/libutee/tee_api.c:419
    260c:	14000bd9 	b	5570 <TEE_Panic>
/home/davy/research/pynq-tee/amd-zu3-optee/optee_os/lib/libutee/tee_api.c:421
    2610:	a8c17bfd 	ldp	x29, x30, [sp], #16
    2614:	d65f03c0 	ret
    2618:	d65f03c0 	ret

000000000000261c <TEE_GetCancellationFlag>:
TEE_GetCancellationFlag():
/home/davy/research/pynq-tee/amd-zu3-optee/optee_os/lib/libutee/tee_api.c:530
    261c:	d10083ff 	sub	sp, sp, #0x20
    2620:	90000081 	adrp	x1, 12000 <_DYNAMIC>
    2624:	a9017bfd 	stp	x29, x30, [sp, #16]
    2628:	910043fd 	add	x29, sp, #0x10
    262c:	f9409821 	ldr	x1, [x1, #304]
    2630:	f9400020 	ldr	x0, [x1]
    2634:	f90007e0 	str	x0, [sp, #8]
    2638:	d2800000 	mov	x0, #0x0                   	// #0
/home/davy/research/pynq-tee/amd-zu3-optee/optee_os/lib/libutee/tee_api.c:532
    263c:	910013e0 	add	x0, sp, #0x4
    2640:	97fffe70 	bl	2000 <_utee_get_cancellation_flag>
/home/davy/research/pynq-tee/amd-zu3-optee/optee_os/lib/libutee/tee_api.c:534
    2644:	34000040 	cbz	w0, 264c <TEE_GetCancellationFlag+0x30>
/home/davy/research/pynq-tee/amd-zu3-optee/optee_os/lib/libutee/tee_api.c:535
    2648:	b90007ff 	str	wzr, [sp, #4]
/home/davy/research/pynq-tee/amd-zu3-optee/optee_os/lib/libutee/tee_api.c:537
    264c:	90000081 	adrp	x1, 12000 <_DYNAMIC>
/home/davy/research/pynq-tee/amd-zu3-optee/optee_os/lib/libutee/tee_api.c:536
    2650:	b94007e0 	ldr	w0, [sp, #4]
/home/davy/research/pynq-tee/amd-zu3-optee/optee_os/lib/libutee/tee_api.c:537
    2654:	f9409821 	ldr	x1, [x1, #304]
/home/davy/research/pynq-tee/amd-zu3-optee/optee_os/lib/libutee/tee_api.c:536
    2658:	7100001f 	cmp	w0, #0x0
    265c:	1a9f07e0 	cset	w0, ne	// ne = any
/home/davy/research/pynq-tee/amd-zu3-optee/optee_os/lib/libutee/tee_api.c:537
    2660:	f94007e3 	ldr	x3, [sp, #8]
    2664:	f9400022 	ldr	x2, [x1]
    2668:	eb020063 	subs	x3, x3, x2
    266c:	d2800002 	mov	x2, #0x0                   	// #0
    2670:	54000040 	b.eq	2678 <TEE_GetCancellationFlag+0x5c>  // b.none
    2674:	97fff6f0 	bl	234 <__stack_chk_fail>
    2678:	a9417bfd 	ldp	x29, x30, [sp, #16]
    267c:	910083ff 	add	sp, sp, #0x20
    2680:	d65f03c0 	ret

0000000000002684 <TEE_UnmaskCancellation>:
TEE_UnmaskCancellation():
/home/davy/research/pynq-tee/amd-zu3-optee/optee_os/lib/libutee/tee_api.c:540
    2684:	d10083ff 	sub	sp, sp, #0x20
    2688:	90000081 	adrp	x1, 12000 <_DYNAMIC>
    268c:	a9017bfd 	stp	x29, x30, [sp, #16]
    2690:	910043fd 	add	x29, sp, #0x10
    2694:	f9409821 	ldr	x1, [x1, #304]
    2698:	f9400020 	ldr	x0, [x1]
    269c:	f90007e0 	str	x0, [sp, #8]
    26a0:	d2800000 	mov	x0, #0x0                   	// #0
/home/davy/research/pynq-tee/amd-zu3-optee/optee_os/lib/libutee/tee_api.c:542
    26a4:	910013e0 	add	x0, sp, #0x4
    26a8:	97fffe5c 	bl	2018 <_utee_unmask_cancellation>
/home/davy/research/pynq-tee/amd-zu3-optee/optee_os/lib/libutee/tee_api.c:544
    26ac:	34000040 	cbz	w0, 26b4 <TEE_UnmaskCancellation+0x30>
/home/davy/research/pynq-tee/amd-zu3-optee/optee_os/lib/libutee/tee_api.c:545
    26b0:	94000bb0 	bl	5570 <TEE_Panic>
/home/davy/research/pynq-tee/amd-zu3-optee/optee_os/lib/libutee/tee_api.c:547
    26b4:	90000081 	adrp	x1, 12000 <_DYNAMIC>
/home/davy/research/pynq-tee/amd-zu3-optee/optee_os/lib/libutee/tee_api.c:546
    26b8:	b94007e0 	ldr	w0, [sp, #4]
/home/davy/research/pynq-tee/amd-zu3-optee/optee_os/lib/libutee/tee_api.c:547
    26bc:	f9409821 	ldr	x1, [x1, #304]
/home/davy/research/pynq-tee/amd-zu3-optee/optee_os/lib/libutee/tee_api.c:546
    26c0:	7100001f 	cmp	w0, #0x0
    26c4:	1a9f07e0 	cset	w0, ne	// ne = any
/home/davy/research/pynq-tee/amd-zu3-optee/optee_os/lib/libutee/tee_api.c:547
    26c8:	f94007e3 	ldr	x3, [sp, #8]
    26cc:	f9400022 	ldr	x2, [x1]
    26d0:	eb020063 	subs	x3, x3, x2
    26d4:	d2800002 	mov	x2, #0x0                   	// #0
    26d8:	54000040 	b.eq	26e0 <TEE_UnmaskCancellation+0x5c>  // b.none
    26dc:	97fff6d6 	bl	234 <__stack_chk_fail>
    26e0:	a9417bfd 	ldp	x29, x30, [sp, #16]
    26e4:	910083ff 	add	sp, sp, #0x20
    26e8:	d65f03c0 	ret

00000000000026ec <TEE_MaskCancellation>:
TEE_MaskCancellation():
/home/davy/research/pynq-tee/amd-zu3-optee/optee_os/lib/libutee/tee_api.c:550
    26ec:	d10083ff 	sub	sp, sp, #0x20
    26f0:	90000081 	adrp	x1, 12000 <_DYNAMIC>
    26f4:	a9017bfd 	stp	x29, x30, [sp, #16]
    26f8:	910043fd 	add	x29, sp, #0x10
    26fc:	f9409821 	ldr	x1, [x1, #304]
    2700:	f9400020 	ldr	x0, [x1]
    2704:	f90007e0 	str	x0, [sp, #8]
    2708:	d2800000 	mov	x0, #0x0                   	// #0
/home/davy/research/pynq-tee/amd-zu3-optee/optee_os/lib/libutee/tee_api.c:552
    270c:	910013e0 	add	x0, sp, #0x4
    2710:	97fffe45 	bl	2024 <_utee_mask_cancellation>
/home/davy/research/pynq-tee/amd-zu3-optee/optee_os/lib/libutee/tee_api.c:554
    2714:	34000040 	cbz	w0, 271c <TEE_MaskCancellation+0x30>
/home/davy/research/pynq-tee/amd-zu3-optee/optee_os/lib/libutee/tee_api.c:555
    2718:	94000b96 	bl	5570 <TEE_Panic>
/home/davy/research/pynq-tee/amd-zu3-optee/optee_os/lib/libutee/tee_api.c:557
    271c:	90000081 	adrp	x1, 12000 <_DYNAMIC>
/home/davy/research/pynq-tee/amd-zu3-optee/optee_os/lib/libutee/tee_api.c:556
    2720:	b94007e0 	ldr	w0, [sp, #4]
/home/davy/research/pynq-tee/amd-zu3-optee/optee_os/lib/libutee/tee_api.c:557
    2724:	f9409821 	ldr	x1, [x1, #304]
/home/davy/research/pynq-tee/amd-zu3-optee/optee_os/lib/libutee/tee_api.c:556
    2728:	7100001f 	cmp	w0, #0x0
    272c:	1a9f07e0 	cset	w0, ne	// ne = any
/home/davy/research/pynq-tee/amd-zu3-optee/optee_os/lib/libutee/tee_api.c:557
    2730:	f94007e3 	ldr	x3, [sp, #8]
    2734:	f9400022 	ldr	x2, [x1]
    2738:	eb020063 	subs	x3, x3, x2
    273c:	d2800002 	mov	x2, #0x0                   	// #0
    2740:	54000040 	b.eq	2748 <TEE_MaskCancellation+0x5c>  // b.none
    2744:	97fff6bc 	bl	234 <__stack_chk_fail>
    2748:	a9417bfd 	ldp	x29, x30, [sp, #16]
    274c:	910083ff 	add	sp, sp, #0x20
    2750:	d65f03c0 	ret

0000000000002754 <TEE_CheckMemoryAccessRights>:
TEE_CheckMemoryAccessRights():
/home/davy/research/pynq-tee/amd-zu3-optee/optee_os/lib/libutee/tee_api.c:566
    2754:	b5000062 	cbnz	x2, 2760 <TEE_CheckMemoryAccessRights+0xc>
/home/davy/research/pynq-tee/amd-zu3-optee/optee_os/lib/libutee/tee_api.c:567
    2758:	52800000 	mov	w0, #0x0                   	// #0
/home/davy/research/pynq-tee/amd-zu3-optee/optee_os/lib/libutee/tee_api.c:592
    275c:	d65f03c0 	ret
/home/davy/research/pynq-tee/amd-zu3-optee/optee_os/lib/libutee/tee_api.c:563
    2760:	a9bd7bfd 	stp	x29, x30, [sp, #-48]!
    2764:	910003fd 	mov	x29, sp
    2768:	a90153f3 	stp	x19, x20, [sp, #16]
    276c:	aa0103f4 	mov	x20, x1
    2770:	aa0203f3 	mov	x19, x2
    2774:	f90013f5 	str	x21, [sp, #32]
    2778:	2a0003f5 	mov	w21, w0
/home/davy/research/pynq-tee/amd-zu3-optee/optee_os/lib/libutee/tee_api.c:573
    277c:	97fffe24 	bl	200c <_utee_check_access_rights>
/home/davy/research/pynq-tee/amd-zu3-optee/optee_os/lib/libutee/tee_api.c:573 (discriminator 1)
    2780:	34000060 	cbz	w0, 278c <TEE_CheckMemoryAccessRights+0x38>
/home/davy/research/pynq-tee/amd-zu3-optee/optee_os/lib/libutee/tee_api.c:574
    2784:	129fffc0 	mov	w0, #0xffff0001            	// #-65535
    2788:	1400000f 	b	27c4 <TEE_CheckMemoryAccessRights+0x70>
/home/davy/research/pynq-tee/amd-zu3-optee/optee_os/lib/libutee/tee_api.c:584
    278c:	aa1303e2 	mov	x2, x19
    2790:	aa1403e1 	mov	x1, x20
    2794:	12000aa0 	and	w0, w21, #0x7
    2798:	97fffee7 	bl	2334 <check_mem_access_rights_params>
/home/davy/research/pynq-tee/amd-zu3-optee/optee_os/lib/libutee/tee_api.c:584 (discriminator 1)
    279c:	35ffff40 	cbnz	w0, 2784 <TEE_CheckMemoryAccessRights+0x30>
/home/davy/research/pynq-tee/amd-zu3-optee/optee_os/lib/libutee/tee_api.c:587
    27a0:	aa1303e1 	mov	x1, x19
    27a4:	aa1403e0 	mov	x0, x20
    27a8:	9400285e 	bl	c920 <malloc_buffer_overlaps_heap>
/home/davy/research/pynq-tee/amd-zu3-optee/optee_os/lib/libutee/tee_api.c:587 (discriminator 1)
    27ac:	360000a0 	tbz	w0, #0, 27c0 <TEE_CheckMemoryAccessRights+0x6c>
/home/davy/research/pynq-tee/amd-zu3-optee/optee_os/lib/libutee/tee_api.c:588
    27b0:	aa1303e1 	mov	x1, x19
    27b4:	aa1403e0 	mov	x0, x20
    27b8:	94002855 	bl	c90c <malloc_buffer_is_within_alloced>
/home/davy/research/pynq-tee/amd-zu3-optee/optee_os/lib/libutee/tee_api.c:587 (discriminator 1)
    27bc:	3607fe40 	tbz	w0, #0, 2784 <TEE_CheckMemoryAccessRights+0x30>
/home/davy/research/pynq-tee/amd-zu3-optee/optee_os/lib/libutee/tee_api.c:567
    27c0:	52800000 	mov	w0, #0x0                   	// #0
/home/davy/research/pynq-tee/amd-zu3-optee/optee_os/lib/libutee/tee_api.c:592
    27c4:	f94013f5 	ldr	x21, [sp, #32]
    27c8:	a94153f3 	ldp	x19, x20, [sp, #16]
    27cc:	a8c37bfd 	ldp	x29, x30, [sp], #48
    27d0:	d65f03c0 	ret

00000000000027d4 <map_tmp_param>:
map_tmp_param():
/home/davy/research/pynq-tee/amd-zu3-optee/optee_os/lib/libutee/tee_api.c:98
    27d4:	d101c3ff 	sub	sp, sp, #0x70
    27d8:	90000084 	adrp	x4, 12000 <_DYNAMIC>
    27dc:	a9017bfd 	stp	x29, x30, [sp, #16]
    27e0:	910043fd 	add	x29, sp, #0x10
    27e4:	f9409884 	ldr	x4, [x4, #304]
    27e8:	a90253f3 	stp	x19, x20, [sp, #32]
/home/davy/research/pynq-tee/amd-zu3-optee/optee_os/lib/libutee/tee_api.c:116
    27ec:	d2800013 	mov	x19, #0x0                   	// #0
/home/davy/research/pynq-tee/amd-zu3-optee/optee_os/lib/libutee/tee_api.c:98
    27f0:	a9035bf5 	stp	x21, x22, [sp, #48]
    27f4:	aa0203f6 	mov	x22, x2
    27f8:	aa0303f5 	mov	x21, x3
    27fc:	a90463f7 	stp	x23, x24, [sp, #64]
    2800:	91002018 	add	x24, x0, #0x8
    2804:	aa0103f7 	mov	x23, x1
    2808:	a9056bf9 	stp	x25, x26, [sp, #80]
    280c:	aa0003f9 	mov	x25, x0
/home/davy/research/pynq-tee/amd-zu3-optee/optee_os/lib/libutee/tee_api.c:101
    2810:	d280001a 	mov	x26, #0x0                   	// #0
/home/davy/research/pynq-tee/amd-zu3-optee/optee_os/lib/libutee/tee_api.c:98
    2814:	f90033fb 	str	x27, [sp, #96]
/home/davy/research/pynq-tee/amd-zu3-optee/optee_os/lib/libutee/tee_api.c:115
    2818:	aa1803fb 	mov	x27, x24
/home/davy/research/pynq-tee/amd-zu3-optee/optee_os/lib/libutee/tee_api.c:98
    281c:	f9400080 	ldr	x0, [x4]
    2820:	f90007e0 	str	x0, [sp, #8]
    2824:	d2800000 	mov	x0, #0x0                   	// #0
/home/davy/research/pynq-tee/amd-zu3-optee/optee_os/lib/libutee/tee_api.c:114
    2828:	f900003f 	str	xzr, [x1]
/home/davy/research/pynq-tee/amd-zu3-optee/optee_os/lib/libutee/tee_api.c:115
    282c:	f900005f 	str	xzr, [x2]
/home/davy/research/pynq-tee/amd-zu3-optee/optee_os/lib/libutee/tee_api.c:103
    2830:	b90003ff 	str	wzr, [sp]
/home/davy/research/pynq-tee/amd-zu3-optee/optee_os/lib/libutee/tee_api.c:118
    2834:	f9400321 	ldr	x1, [x25]
    2838:	531e7660 	lsl	w0, w19, #2
/home/davy/research/pynq-tee/amd-zu3-optee/optee_os/lib/libutee/tee_api.c:117
    283c:	f8337abf 	str	xzr, [x21, x19, lsl #3]
/home/davy/research/pynq-tee/amd-zu3-optee/optee_os/lib/libutee/tee_api.c:118
    2840:	1ac02421 	lsr	w1, w1, w0
    2844:	12000c21 	and	w1, w1, #0xf
    2848:	51001421 	sub	w1, w1, #0x5
    284c:	7100083f 	cmp	w1, #0x2
    2850:	540001e8 	b.hi	288c <map_tmp_param+0xb8>  // b.pmore
/home/davy/research/pynq-tee/amd-zu3-optee/optee_os/lib/libutee/tee_api.c:123
    2854:	a9405361 	ldp	x1, x20, [x27]
/home/davy/research/pynq-tee/amd-zu3-optee/optee_os/lib/libutee/tee_api.c:133
    2858:	f100003f 	cmp	x1, #0x0
    285c:	fa401a84 	ccmp	x20, #0x0, #0x4, ne	// ne = any
    2860:	54000160 	b.eq	288c <map_tmp_param+0xb8>  // b.none
/home/davy/research/pynq-tee/amd-zu3-optee/optee_os/lib/libutee/tee_api.c:134
    2864:	aa1403e2 	mov	x2, x20
    2868:	52800020 	mov	w0, #0x1                   	// #1
    286c:	97ffffba 	bl	2754 <TEE_CheckMemoryAccessRights>
/home/davy/research/pynq-tee/amd-zu3-optee/optee_os/lib/libutee/tee_api.c:133 (discriminator 1)
    2870:	350000e0 	cbnz	w0, 288c <map_tmp_param+0xb8>
/home/davy/research/pynq-tee/amd-zu3-optee/optee_os/lib/libutee/tee_api.c:135
    2874:	910003e0 	mov	x0, sp
/home/davy/research/pynq-tee/amd-zu3-optee/optee_os/lib/libutee/tee_api.c:136 (discriminator 4)
    2878:	91003e94 	add	x20, x20, #0xf
    287c:	927cee94 	and	x20, x20, #0xfffffffffffffff0
/home/davy/research/pynq-tee/amd-zu3-optee/optee_os/lib/libutee/tee_api.c:135
    2880:	52800021 	mov	w1, #0x1                   	// #1
/home/davy/research/pynq-tee/amd-zu3-optee/optee_os/lib/libutee/tee_api.c:136 (discriminator 4)
    2884:	8b14035a 	add	x26, x26, x20
/home/davy/research/pynq-tee/amd-zu3-optee/optee_os/lib/libutee/tee_api.c:135
    2888:	38206a61 	strb	w1, [x19, x0]
/home/davy/research/pynq-tee/amd-zu3-optee/optee_os/lib/libutee/tee_api.c:116 (discriminator 2)
    288c:	91000673 	add	x19, x19, #0x1
/home/davy/research/pynq-tee/amd-zu3-optee/optee_os/lib/libutee/tee_api.c:116 (discriminator 1)
    2890:	9100437b 	add	x27, x27, #0x10
    2894:	f100127f 	cmp	x19, #0x4
    2898:	54fffce1 	b.ne	2834 <map_tmp_param+0x60>  // b.any
/home/davy/research/pynq-tee/amd-zu3-optee/optee_os/lib/libutee/tee_api.c:144
    289c:	b400051a 	cbz	x26, 293c <map_tmp_param+0x168>
/home/davy/research/pynq-tee/amd-zu3-optee/optee_os/lib/libutee/tee_api.c:145
    28a0:	2a1303e1 	mov	w1, w19
    28a4:	aa1a03e0 	mov	x0, x26
    28a8:	94000fba 	bl	6790 <tee_map_zi>
    28ac:	aa0003e4 	mov	x4, x0
/home/davy/research/pynq-tee/amd-zu3-optee/optee_os/lib/libutee/tee_api.c:146
    28b0:	b4000540 	cbz	x0, 2958 <map_tmp_param+0x184>
/home/davy/research/pynq-tee/amd-zu3-optee/optee_os/lib/libutee/tee_api.c:148
    28b4:	f90002e0 	str	x0, [x23]
/home/davy/research/pynq-tee/amd-zu3-optee/optee_os/lib/libutee/tee_api.c:149
    28b8:	f90002da 	str	x26, [x22]
/home/davy/research/pynq-tee/amd-zu3-optee/optee_os/lib/libutee/tee_api.c:157
    28bc:	910003f6 	mov	x22, sp
/home/davy/research/pynq-tee/amd-zu3-optee/optee_os/lib/libutee/tee_api.c:100
    28c0:	d2800013 	mov	x19, #0x0                   	// #0
/home/davy/research/pynq-tee/amd-zu3-optee/optee_os/lib/libutee/tee_api.c:153
    28c4:	f9400322 	ldr	x2, [x25]
    28c8:	531e7660 	lsl	w0, w19, #2
    28cc:	1ac02442 	lsr	w2, w2, w0
    28d0:	12000c42 	and	w2, w2, #0xf
    28d4:	51001440 	sub	w0, w2, #0x5
    28d8:	7100081f 	cmp	w0, #0x2
    28dc:	54000168 	b.hi	2908 <map_tmp_param+0x134>  // b.pmore
/home/davy/research/pynq-tee/amd-zu3-optee/optee_os/lib/libutee/tee_api.c:157
    28e0:	38766a60 	ldrb	w0, [x19, x22]
    28e4:	36000120 	tbz	w0, #0, 2908 <map_tmp_param+0x134>
/home/davy/research/pynq-tee/amd-zu3-optee/optee_os/lib/libutee/tee_api.c:160
    28e8:	a9405301 	ldp	x1, x20, [x24]
/home/davy/research/pynq-tee/amd-zu3-optee/optee_os/lib/libutee/tee_api.c:161
    28ec:	f8337aa4 	str	x4, [x21, x19, lsl #3]
/home/davy/research/pynq-tee/amd-zu3-optee/optee_os/lib/libutee/tee_api.c:163
    28f0:	f9000304 	str	x4, [x24]
/home/davy/research/pynq-tee/amd-zu3-optee/optee_os/lib/libutee/tee_api.c:164
    28f4:	7100185f 	cmp	w2, #0x6
    28f8:	54000261 	b.ne	2944 <map_tmp_param+0x170>  // b.any
/home/davy/research/pynq-tee/amd-zu3-optee/optee_os/lib/libutee/tee_api.c:162 (discriminator 4)
    28fc:	91003e94 	add	x20, x20, #0xf
    2900:	927cee94 	and	x20, x20, #0xfffffffffffffff0
    2904:	8b140084 	add	x4, x4, x20
